   1               		.file	"main.cpp"
   2               	__SREG__ = 0x3f
   3               	__SP_H__ = 0x3e
   4               	__SP_L__ = 0x3d
   5               	__CCP__  = 0x34
   6               	__tmp_reg__ = 0
   7               	__zero_reg__ = 1
  15               	.Ltext0:
  16               	.global	_Z13i2cSetBitratet
  18               	_Z13i2cSetBitratet:
  19               	.LFB108:
  20               	.LM1:
  21               	.LVL0:
  22               	/* prologue: function */
  23               	/* frame size = 0 */
  24               	.LBB359:
  25               	.LM2:
  26 0000 2091 B900 		lds r18,185
  27 0004 2E7F      		andi r18,lo8(-2)
  28 0006 2093 B900 		sts 185,r18
  29               	.LM3:
  30 000a 2091 B900 		lds r18,185
  31 000e 2D7F      		andi r18,lo8(-3)
  32 0010 2093 B900 		sts 185,r18
  33               	.LM4:
  34 0014 9C01      		movw r18,r24
  35 0016 40E0      		ldi r20,lo8(0)
  36 0018 50E0      		ldi r21,hi8(0)
  37               	.LVL1:
  38 001a 60EA      		ldi r22,lo8(4000)
  39 001c 7FE0      		ldi r23,hi8(4000)
  40 001e 80E0      		ldi r24,hlo8(4000)
  41 0020 90E0      		ldi r25,hhi8(4000)
  42 0022 0E94 0000 		call __udivmodsi4
  43               	.LM5:
  44 0026 2031      		cpi r18,lo8(16)
  45               	.LVL2:
  46 0028 00F0      		brlo .L2
  47               	.LM6:
  48 002a 822F      		mov r24,r18
  49               	.LVL3:
  50 002c 90E0      		ldi r25,lo8(0)
  51               	.LVL4:
  52 002e 4097      		sbiw r24,16
  53               	.LVL5:
  54 0030 9595      		asr r25
  55 0032 8795      		ror r24
  56               	.LVL6:
  57 0034 282F      		mov r18,r24
  58               	.LVL7:
  59               	.L2:
  60               	.LM7:
  61 0036 2093 B800 		sts 184,r18
  62               	/* epilogue start */
  63               	.LBE359:
  64               	.LM8:
  65 003a 0895      		ret
  66               	.LFE108:
  68               	.global	_Z7i2cInitv
  70               	_Z7i2cInitv:
  71               	.LFB107:
  72               	.LM9:
  73               	/* prologue: function */
  74               	/* frame size = 0 */
  75               	.LM10:
  76 003c 88E2      		ldi r24,lo8(40)
  77 003e 90E0      		ldi r25,hi8(40)
  78 0040 0E94 0000 		call _Z13i2cSetBitratet
  79               	.LM11:
  80 0044 ECEB      		ldi r30,lo8(188)
  81 0046 F0E0      		ldi r31,hi8(188)
  82 0048 8081      		ld r24,Z
  83 004a 8460      		ori r24,lo8(4)
  84 004c 8083      		st Z,r24
  85               	/* epilogue start */
  86               	.LM12:
  87 004e 0895      		ret
  88               	.LFE107:
  90               	.global	_Z12i2cSendStartv
  92               	_Z12i2cSendStartv:
  93               	.LFB109:
  94               	.LM13:
  95               	/* prologue: function */
  96               	/* frame size = 0 */
  97               	.LM14:
  98 0050 519A      		sbi 42-32,1
  99               	.LM15:
 100 0052 84EA      		ldi r24,lo8(-92)
 101 0054 8093 BC00 		sts 188,r24
 102               	/* epilogue start */
 103               	.LM16:
 104 0058 0895      		ret
 105               	.LFE109:
 107               	.global	_Z11i2cSendStopv
 109               	_Z11i2cSendStopv:
 110               	.LFB110:
 111               	.LM17:
 112               	/* prologue: function */
 113               	/* frame size = 0 */
 114               	.LM18:
 115 005a 84E9      		ldi r24,lo8(-108)
 116 005c 8093 BC00 		sts 188,r24
 117               	/* epilogue start */
 118               	.LM19:
 119 0060 0895      		ret
 120               	.LFE110:
 122               	.global	_Z18i2cWaitForCompletev
 124               	_Z18i2cWaitForCompletev:
 125               	.LFB111:
 126               	.LM20:
 127               	/* prologue: function */
 128               	/* frame size = 0 */
 129               	.LM21:
 130 0062 20E0      		ldi r18,lo8(0)
 131 0064 30E0      		ldi r19,hi8(0)
 132               	.LVL8:
 133               	.L12:
 134               	.LBB360:
 135               	.LM22:
 136 0066 8091 BC00 		lds r24,188
 137 006a 87FD      		sbrc r24,7
 138 006c 00C0      		rjmp .L13
 139 006e 2A35      		cpi r18,90
 140 0070 3105      		cpc r19,__zero_reg__
 141 0072 01F0      		breq .L13
 142               	.LM23:
 143 0074 2F5F      		subi r18,lo8(-(1))
 144 0076 3F4F      		sbci r19,hi8(-(1))
 145 0078 00C0      		rjmp .L12
 146               	.L13:
 147 007a 0895      		ret
 148               	.LBE360:
 149               	.LFE111:
 151               	.global	_Z14i2cReceiveByteh
 153               	_Z14i2cReceiveByteh:
 154               	.LFB113:
 155               	.LM24:
 156               	.LVL9:
 157               	/* prologue: function */
 158               	/* frame size = 0 */
 159               	.LM25:
 160 007c 8823      		tst r24
 161 007e 01F0      		breq .L15
 162               	.LM26:
 163 0080 8091 BC00 		lds r24,188
 164               	.LVL10:
 165 0084 8F70      		andi r24,lo8(15)
 166 0086 806C      		ori r24,lo8(-64)
 167 0088 00C0      		rjmp .L18
 168               	.LVL11:
 169               	.L15:
 170               	.LM27:
 171 008a 8091 BC00 		lds r24,188
 172               	.LVL12:
 173 008e 8F70      		andi r24,lo8(15)
 174 0090 8068      		ori r24,lo8(-128)
 175               	.L18:
 176 0092 8093 BC00 		sts 188,r24
 177 0096 0895      		ret
 178               	.LFE113:
 180               	.global	_Z18i2cGetReceivedBytev
 182               	_Z18i2cGetReceivedBytev:
 183               	.LFB114:
 184               	.LM28:
 185               	/* prologue: function */
 186               	/* frame size = 0 */
 187               	.LM29:
 188 0098 8091 BB00 		lds r24,187
 189               	/* epilogue start */
 190               	.LM30:
 191 009c 0895      		ret
 192               	.LFE114:
 194               	.global	_Z12i2cGetStatusv
 196               	_Z12i2cGetStatusv:
 197               	.LFB115:
 198               	.LM31:
 199               	/* prologue: function */
 200               	/* frame size = 0 */
 201               	.LM32:
 202 009e 8091 B900 		lds r24,185
 203               	/* epilogue start */
 204               	.LM33:
 205 00a2 0895      		ret
 206               	.LFE115:
 208               	.global	_Z8delay_msj
 210               	_Z8delay_msj:
 211               	.LFB116:
 212               	.LM34:
 213               	.LVL13:
 214               	/* prologue: function */
 215               	/* frame size = 0 */
 216 00a4 00C0      		rjmp .L24
 217               	.LVL14:
 218               	.L26:
 219               	.LM35:
 220 00a6 20E0      		ldi r18,lo8(0)
 221               	.L25:
 222               	.LBB361:
 223               	.LM36:
 224               	/* #APP */
 225               	 ;  187 "i2c.h" 1
 226 00a8 0000      		nop
 227               	 ;  0 "" 2
 228               	 ;  187 "i2c.h" 1
 229 00aa 0000      		nop
 230               	 ;  0 "" 2
 231               	 ;  187 "i2c.h" 1
 232 00ac 0000      		nop
 233               	 ;  0 "" 2
 234               	 ;  187 "i2c.h" 1
 235 00ae 0000      		nop
 236               	 ;  0 "" 2
 237               	 ;  187 "i2c.h" 1
 238 00b0 0000      		nop
 239               	 ;  0 "" 2
 240               	 ;  187 "i2c.h" 1
 241 00b2 0000      		nop
 242               	 ;  0 "" 2
 243               	.LM37:
 244               	/* #NOAPP */
 245 00b4 2F5F      		subi r18,lo8(-(1))
 246 00b6 2A35      		cpi r18,lo8(90)
 247 00b8 01F4      		brne .L25
 248               	.LM38:
 249 00ba 0197      		sbiw r24,1
 250               	.LVL15:
 251               	.L24:
 252 00bc 0097      		sbiw r24,0
 253 00be 01F4      		brne .L26
 254               	/* epilogue start */
 255               	.LBE361:
 256               	.LM39:
 257 00c0 0895      		ret
 258               	.LFE116:
 260               	.global	_Z11i2cSendByteh
 262               	_Z11i2cSendByteh:
 263               	.LFB112:
 264               	.LM40:
 265               	.LVL16:
 266 00c2 1F93      		push r17
 267               	/* prologue: function */
 268               	/* frame size = 0 */
 269 00c4 182F      		mov r17,r24
 270               	.LM41:
 271 00c6 81E0      		ldi r24,lo8(1)
 272 00c8 90E0      		ldi r25,hi8(1)
 273               	.LVL17:
 274 00ca 0E94 0000 		call _Z8delay_msj
 275               	.LM42:
 276 00ce 519A      		sbi 42-32,1
 277               	.LM43:
 278 00d0 1093 BB00 		sts 187,r17
 279               	.LM44:
 280 00d4 84E8      		ldi r24,lo8(-124)
 281 00d6 8093 BC00 		sts 188,r24
 282               	/* epilogue start */
 283               	.LM45:
 284 00da 1F91      		pop r17
 285               	.LVL18:
 286 00dc 0895      		ret
 287               	.LFE112:
 289               	.global	_Z9gyro_initv
 291               	_Z9gyro_initv:
 292               	.LFB117:
 293               	.LM46:
 294 00de EF92      		push r14
 295 00e0 FF92      		push r15
 296 00e2 0F93      		push r16
 297 00e4 1F93      		push r17
 298               	/* prologue: function */
 299               	/* frame size = 0 */
 300               	.LBB362:
 301               	.LBB363:
 302               	.LM47:
 303 00e6 519A      		sbi 42-32,1
 304               	.LM48:
 305 00e8 0CEB      		ldi r16,lo8(188)
 306 00ea 10E0      		ldi r17,hi8(188)
 307 00ec 44EA      		ldi r20,lo8(-92)
 308 00ee E42E      		mov r14,r20
 309 00f0 F801      		movw r30,r16
 310 00f2 E082      		st Z,r14
 311               	.LBE363:
 312               	.LBE362:
 313               	.LM49:
 314 00f4 0E94 0000 		call _Z18i2cWaitForCompletev
 315               	.LM50:
 316 00f8 80ED      		ldi r24,lo8(-48)
 317 00fa 0E94 0000 		call _Z11i2cSendByteh
 318               	.LM51:
 319 00fe 0E94 0000 		call _Z18i2cWaitForCompletev
 320               	.LM52:
 321 0102 8EE3      		ldi r24,lo8(62)
 322 0104 0E94 0000 		call _Z11i2cSendByteh
 323               	.LM53:
 324 0108 0E94 0000 		call _Z18i2cWaitForCompletev
 325               	.LM54:
 326 010c 80E8      		ldi r24,lo8(-128)
 327 010e 0E94 0000 		call _Z11i2cSendByteh
 328               	.LM55:
 329 0112 0E94 0000 		call _Z18i2cWaitForCompletev
 330               	.LBB364:
 331               	.LBB365:
 332               	.LM56:
 333 0116 34E9      		ldi r19,lo8(-108)
 334 0118 F32E      		mov r15,r19
 335 011a F801      		movw r30,r16
 336 011c F082      		st Z,r15
 337               	.LBE365:
 338               	.LBE364:
 339               	.LM57:
 340 011e 8AE0      		ldi r24,lo8(10)
 341 0120 90E0      		ldi r25,hi8(10)
 342 0122 0E94 0000 		call _Z8delay_msj
 343               	.LBB366:
 344               	.LBB367:
 345               	.LM58:
 346 0126 519A      		sbi 42-32,1
 347               	.LM59:
 348 0128 F801      		movw r30,r16
 349 012a E082      		st Z,r14
 350               	.LBE367:
 351               	.LBE366:
 352               	.LM60:
 353 012c 0E94 0000 		call _Z18i2cWaitForCompletev
 354               	.LM61:
 355 0130 80ED      		ldi r24,lo8(-48)
 356 0132 0E94 0000 		call _Z11i2cSendByteh
 357               	.LM62:
 358 0136 0E94 0000 		call _Z18i2cWaitForCompletev
 359               	.LM63:
 360 013a 86E1      		ldi r24,lo8(22)
 361 013c 0E94 0000 		call _Z11i2cSendByteh
 362               	.LM64:
 363 0140 0E94 0000 		call _Z18i2cWaitForCompletev
 364               	.LM65:
 365 0144 88E1      		ldi r24,lo8(24)
 366 0146 0E94 0000 		call _Z11i2cSendByteh
 367               	.LM66:
 368 014a 0E94 0000 		call _Z18i2cWaitForCompletev
 369               	.LBB368:
 370               	.LBB369:
 371               	.LM67:
 372 014e F801      		movw r30,r16
 373 0150 F082      		st Z,r15
 374               	.LBE369:
 375               	.LBE368:
 376               	.LM68:
 377 0152 8AE0      		ldi r24,lo8(10)
 378 0154 90E0      		ldi r25,hi8(10)
 379 0156 0E94 0000 		call _Z8delay_msj
 380               	.LBB370:
 381               	.LBB371:
 382               	.LM69:
 383 015a 519A      		sbi 42-32,1
 384               	.LM70:
 385 015c F801      		movw r30,r16
 386 015e E082      		st Z,r14
 387               	.LBE371:
 388               	.LBE370:
 389               	.LM71:
 390 0160 0E94 0000 		call _Z18i2cWaitForCompletev
 391               	.LM72:
 392 0164 80ED      		ldi r24,lo8(-48)
 393 0166 0E94 0000 		call _Z11i2cSendByteh
 394               	.LM73:
 395 016a 0E94 0000 		call _Z18i2cWaitForCompletev
 396               	.LM74:
 397 016e 8EE3      		ldi r24,lo8(62)
 398 0170 0E94 0000 		call _Z11i2cSendByteh
 399               	.LM75:
 400 0174 0E94 0000 		call _Z18i2cWaitForCompletev
 401               	.LM76:
 402 0178 80E0      		ldi r24,lo8(0)
 403 017a 0E94 0000 		call _Z11i2cSendByteh
 404               	.LM77:
 405 017e 0E94 0000 		call _Z18i2cWaitForCompletev
 406               	.LBB372:
 407               	.LBB373:
 408               	.LM78:
 409 0182 F801      		movw r30,r16
 410 0184 F082      		st Z,r15
 411               	/* epilogue start */
 412               	.LBE373:
 413               	.LBE372:
 414               	.LM79:
 415 0186 1F91      		pop r17
 416 0188 0F91      		pop r16
 417 018a FF90      		pop r15
 418 018c EF90      		pop r14
 419 018e 0895      		ret
 420               	.LFE117:
 422               	.global	_Z6x_gyrov
 424               	_Z6x_gyrov:
 425               	.LFB119:
 426               	.LM80:
 427 0190 CF92      		push r12
 428 0192 DF92      		push r13
 429 0194 EF92      		push r14
 430 0196 FF92      		push r15
 431 0198 0F93      		push r16
 432 019a 1F93      		push r17
 433               	/* prologue: function */
 434               	/* frame size = 0 */
 435               	.LBB374:
 436               	.LM81:
 437 019c 0CEB      		ldi r16,lo8(188)
 438 019e 10E0      		ldi r17,hi8(188)
 439 01a0 F801      		movw r30,r16
 440 01a2 8081      		ld r24,Z
 441 01a4 8B7F      		andi r24,lo8(-5)
 442 01a6 8083      		st Z,r24
 443               	.LM82:
 444 01a8 8081      		ld r24,Z
 445 01aa 8460      		ori r24,lo8(4)
 446 01ac 8083      		st Z,r24
 447               	.LBB375:
 448               	.LBB376:
 449               	.LM83:
 450 01ae 519A      		sbi 42-32,1
 451               	.LM84:
 452 01b0 74EA      		ldi r23,lo8(-92)
 453 01b2 F72E      		mov r15,r23
 454 01b4 F082      		st Z,r15
 455               	.LBE376:
 456               	.LBE375:
 457               	.LM85:
 458 01b6 0E94 0000 		call _Z18i2cWaitForCompletev
 459               	.LM86:
 460 01ba 80ED      		ldi r24,lo8(-48)
 461 01bc 0E94 0000 		call _Z11i2cSendByteh
 462               	.LM87:
 463 01c0 0E94 0000 		call _Z18i2cWaitForCompletev
 464               	.LM88:
 465 01c4 8DE1      		ldi r24,lo8(29)
 466 01c6 0E94 0000 		call _Z11i2cSendByteh
 467               	.LM89:
 468 01ca 0E94 0000 		call _Z18i2cWaitForCompletev
 469               	.LBB377:
 470               	.LBB378:
 471               	.LM90:
 472 01ce 519A      		sbi 42-32,1
 473               	.LM91:
 474 01d0 F801      		movw r30,r16
 475 01d2 F082      		st Z,r15
 476               	.LBE378:
 477               	.LBE377:
 478               	.LM92:
 479 01d4 81ED      		ldi r24,lo8(-47)
 480 01d6 0E94 0000 		call _Z11i2cSendByteh
 481               	.LM93:
 482 01da 0E94 0000 		call _Z18i2cWaitForCompletev
 483               	.LM94:
 484 01de 80E0      		ldi r24,lo8(0)
 485 01e0 0E94 0000 		call _Z14i2cReceiveByteh
 486               	.LM95:
 487 01e4 0E94 0000 		call _Z18i2cWaitForCompletev
 488               	.LBB379:
 489               	.LBB380:
 490               	.LM96:
 491 01e8 6BEB      		ldi r22,lo8(187)
 492 01ea C62E      		mov r12,r22
 493 01ec D12C      		mov r13,__zero_reg__
 494 01ee F601      		movw r30,r12
 495 01f0 8081      		ld r24,Z
 496               	.LVL19:
 497               	.LBE380:
 498               	.LBE379:
 499               	.LM97:
 500 01f2 0E94 0000 		call _Z18i2cWaitForCompletev
 501               	.LVL20:
 502               	.LBB381:
 503               	.LBB382:
 504               	.LM98:
 505 01f6 54E9      		ldi r21,lo8(-108)
 506 01f8 E52E      		mov r14,r21
 507 01fa F801      		movw r30,r16
 508 01fc E082      		st Z,r14
 509               	.LBE382:
 510               	.LBE381:
 511               	.LM99:
 512 01fe 8081      		ld r24,Z
 513 0200 8B7F      		andi r24,lo8(-5)
 514 0202 8083      		st Z,r24
 515               	.LM100:
 516 0204 8081      		ld r24,Z
 517 0206 8460      		ori r24,lo8(4)
 518 0208 8083      		st Z,r24
 519               	.LBB383:
 520               	.LBB384:
 521               	.LM101:
 522 020a 519A      		sbi 42-32,1
 523               	.LM102:
 524 020c F082      		st Z,r15
 525               	.LBE384:
 526               	.LBE383:
 527               	.LM103:
 528 020e 0E94 0000 		call _Z18i2cWaitForCompletev
 529               	.LM104:
 530 0212 80ED      		ldi r24,lo8(-48)
 531 0214 0E94 0000 		call _Z11i2cSendByteh
 532               	.LM105:
 533 0218 0E94 0000 		call _Z18i2cWaitForCompletev
 534               	.LM106:
 535 021c 8EE1      		ldi r24,lo8(30)
 536 021e 0E94 0000 		call _Z11i2cSendByteh
 537               	.LM107:
 538 0222 0E94 0000 		call _Z18i2cWaitForCompletev
 539               	.LBB385:
 540               	.LBB386:
 541               	.LM108:
 542 0226 519A      		sbi 42-32,1
 543               	.LM109:
 544 0228 F801      		movw r30,r16
 545 022a F082      		st Z,r15
 546               	.LBE386:
 547               	.LBE385:
 548               	.LM110:
 549 022c 81ED      		ldi r24,lo8(-47)
 550 022e 0E94 0000 		call _Z11i2cSendByteh
 551               	.LM111:
 552 0232 0E94 0000 		call _Z18i2cWaitForCompletev
 553               	.LM112:
 554 0236 80E0      		ldi r24,lo8(0)
 555 0238 0E94 0000 		call _Z14i2cReceiveByteh
 556               	.LM113:
 557 023c 0E94 0000 		call _Z18i2cWaitForCompletev
 558               	.LBB387:
 559               	.LBB388:
 560               	.LM114:
 561 0240 F601      		movw r30,r12
 562 0242 F080      		ld r15,Z
 563               	.LVL21:
 564               	.LBE388:
 565               	.LBE387:
 566               	.LM115:
 567 0244 0E94 0000 		call _Z18i2cWaitForCompletev
 568               	.LBB389:
 569               	.LBB390:
 570               	.LM116:
 571 0248 F801      		movw r30,r16
 572 024a E082      		st Z,r14
 573               	.LBE390:
 574               	.LBE389:
 575               	.LM117:
 576 024c 8081      		ld r24,Z
 577 024e 8B7F      		andi r24,lo8(-5)
 578 0250 8083      		st Z,r24
 579               	.LM118:
 580 0252 8081      		ld r24,Z
 581 0254 8460      		ori r24,lo8(4)
 582 0256 8083      		st Z,r24
 583               	.LBE374:
 584               	.LM119:
 585 0258 8F2D      		mov r24,r15
 586               	/* epilogue start */
 587 025a 1F91      		pop r17
 588 025c 0F91      		pop r16
 589 025e FF90      		pop r15
 590               	.LVL22:
 591 0260 EF90      		pop r14
 592 0262 DF90      		pop r13
 593 0264 CF90      		pop r12
 594 0266 0895      		ret
 595               	.LFE119:
 597               	.global	_Z6y_gyrov
 599               	_Z6y_gyrov:
 600               	.LFB120:
 601               	.LM120:
 602 0268 CF92      		push r12
 603 026a DF92      		push r13
 604 026c EF92      		push r14
 605 026e FF92      		push r15
 606 0270 0F93      		push r16
 607 0272 1F93      		push r17
 608               	/* prologue: function */
 609               	/* frame size = 0 */
 610               	.LBB391:
 611               	.LM121:
 612 0274 0CEB      		ldi r16,lo8(188)
 613 0276 10E0      		ldi r17,hi8(188)
 614 0278 F801      		movw r30,r16
 615 027a 8081      		ld r24,Z
 616 027c 8B7F      		andi r24,lo8(-5)
 617 027e 8083      		st Z,r24
 618               	.LM122:
 619 0280 8081      		ld r24,Z
 620 0282 8460      		ori r24,lo8(4)
 621 0284 8083      		st Z,r24
 622               	.LBB392:
 623               	.LBB393:
 624               	.LM123:
 625 0286 519A      		sbi 42-32,1
 626               	.LM124:
 627 0288 A4EA      		ldi r26,lo8(-92)
 628 028a FA2E      		mov r15,r26
 629 028c F082      		st Z,r15
 630               	.LBE393:
 631               	.LBE392:
 632               	.LM125:
 633 028e 0E94 0000 		call _Z18i2cWaitForCompletev
 634               	.LM126:
 635 0292 80ED      		ldi r24,lo8(-48)
 636 0294 0E94 0000 		call _Z11i2cSendByteh
 637               	.LM127:
 638 0298 0E94 0000 		call _Z18i2cWaitForCompletev
 639               	.LM128:
 640 029c 8FE1      		ldi r24,lo8(31)
 641 029e 0E94 0000 		call _Z11i2cSendByteh
 642               	.LM129:
 643 02a2 0E94 0000 		call _Z18i2cWaitForCompletev
 644               	.LBB394:
 645               	.LBB395:
 646               	.LM130:
 647 02a6 519A      		sbi 42-32,1
 648               	.LM131:
 649 02a8 F801      		movw r30,r16
 650 02aa F082      		st Z,r15
 651               	.LBE395:
 652               	.LBE394:
 653               	.LM132:
 654 02ac 81ED      		ldi r24,lo8(-47)
 655 02ae 0E94 0000 		call _Z11i2cSendByteh
 656               	.LM133:
 657 02b2 0E94 0000 		call _Z18i2cWaitForCompletev
 658               	.LM134:
 659 02b6 80E0      		ldi r24,lo8(0)
 660 02b8 0E94 0000 		call _Z14i2cReceiveByteh
 661               	.LM135:
 662 02bc 0E94 0000 		call _Z18i2cWaitForCompletev
 663               	.LBB396:
 664               	.LBB397:
 665               	.LM136:
 666 02c0 FBEB      		ldi r31,lo8(187)
 667 02c2 CF2E      		mov r12,r31
 668 02c4 D12C      		mov r13,__zero_reg__
 669 02c6 F601      		movw r30,r12
 670 02c8 8081      		ld r24,Z
 671               	.LVL23:
 672               	.LBE397:
 673               	.LBE396:
 674               	.LM137:
 675 02ca 0E94 0000 		call _Z18i2cWaitForCompletev
 676               	.LVL24:
 677               	.LBB398:
 678               	.LBB399:
 679               	.LM138:
 680 02ce E4E9      		ldi r30,lo8(-108)
 681 02d0 EE2E      		mov r14,r30
 682 02d2 F801      		movw r30,r16
 683 02d4 E082      		st Z,r14
 684               	.LBE399:
 685               	.LBE398:
 686               	.LM139:
 687 02d6 8081      		ld r24,Z
 688 02d8 8B7F      		andi r24,lo8(-5)
 689 02da 8083      		st Z,r24
 690               	.LM140:
 691 02dc 8081      		ld r24,Z
 692 02de 8460      		ori r24,lo8(4)
 693 02e0 8083      		st Z,r24
 694               	.LBB400:
 695               	.LBB401:
 696               	.LM141:
 697 02e2 519A      		sbi 42-32,1
 698               	.LM142:
 699 02e4 F082      		st Z,r15
 700               	.LBE401:
 701               	.LBE400:
 702               	.LM143:
 703 02e6 0E94 0000 		call _Z18i2cWaitForCompletev
 704               	.LM144:
 705 02ea 80ED      		ldi r24,lo8(-48)
 706 02ec 0E94 0000 		call _Z11i2cSendByteh
 707               	.LM145:
 708 02f0 0E94 0000 		call _Z18i2cWaitForCompletev
 709               	.LM146:
 710 02f4 80E2      		ldi r24,lo8(32)
 711 02f6 0E94 0000 		call _Z11i2cSendByteh
 712               	.LM147:
 713 02fa 0E94 0000 		call _Z18i2cWaitForCompletev
 714               	.LBB402:
 715               	.LBB403:
 716               	.LM148:
 717 02fe 519A      		sbi 42-32,1
 718               	.LM149:
 719 0300 F801      		movw r30,r16
 720 0302 F082      		st Z,r15
 721               	.LBE403:
 722               	.LBE402:
 723               	.LM150:
 724 0304 81ED      		ldi r24,lo8(-47)
 725 0306 0E94 0000 		call _Z11i2cSendByteh
 726               	.LM151:
 727 030a 0E94 0000 		call _Z18i2cWaitForCompletev
 728               	.LM152:
 729 030e 80E0      		ldi r24,lo8(0)
 730 0310 0E94 0000 		call _Z14i2cReceiveByteh
 731               	.LM153:
 732 0314 0E94 0000 		call _Z18i2cWaitForCompletev
 733               	.LBB404:
 734               	.LBB405:
 735               	.LM154:
 736 0318 F601      		movw r30,r12
 737 031a F080      		ld r15,Z
 738               	.LVL25:
 739               	.LBE405:
 740               	.LBE404:
 741               	.LM155:
 742 031c 0E94 0000 		call _Z18i2cWaitForCompletev
 743               	.LBB406:
 744               	.LBB407:
 745               	.LM156:
 746 0320 F801      		movw r30,r16
 747 0322 E082      		st Z,r14
 748               	.LBE407:
 749               	.LBE406:
 750               	.LM157:
 751 0324 8081      		ld r24,Z
 752 0326 8B7F      		andi r24,lo8(-5)
 753 0328 8083      		st Z,r24
 754               	.LM158:
 755 032a 8081      		ld r24,Z
 756 032c 8460      		ori r24,lo8(4)
 757 032e 8083      		st Z,r24
 758               	.LBE391:
 759               	.LM159:
 760 0330 8F2D      		mov r24,r15
 761               	/* epilogue start */
 762 0332 1F91      		pop r17
 763 0334 0F91      		pop r16
 764 0336 FF90      		pop r15
 765               	.LVL26:
 766 0338 EF90      		pop r14
 767 033a DF90      		pop r13
 768 033c CF90      		pop r12
 769 033e 0895      		ret
 770               	.LFE120:
 772               	.global	_Z6z_gyrov
 774               	_Z6z_gyrov:
 775               	.LFB121:
 776               	.LM160:
 777 0340 CF92      		push r12
 778 0342 DF92      		push r13
 779 0344 EF92      		push r14
 780 0346 FF92      		push r15
 781 0348 0F93      		push r16
 782 034a 1F93      		push r17
 783               	/* prologue: function */
 784               	/* frame size = 0 */
 785               	.LBB408:
 786               	.LM161:
 787 034c 0CEB      		ldi r16,lo8(188)
 788 034e 10E0      		ldi r17,hi8(188)
 789 0350 F801      		movw r30,r16
 790 0352 8081      		ld r24,Z
 791 0354 8B7F      		andi r24,lo8(-5)
 792 0356 8083      		st Z,r24
 793               	.LM162:
 794 0358 8081      		ld r24,Z
 795 035a 8460      		ori r24,lo8(4)
 796 035c 8083      		st Z,r24
 797               	.LBB409:
 798               	.LBB410:
 799               	.LM163:
 800 035e 519A      		sbi 42-32,1
 801               	.LM164:
 802 0360 94EA      		ldi r25,lo8(-92)
 803 0362 F92E      		mov r15,r25
 804 0364 F082      		st Z,r15
 805               	.LBE410:
 806               	.LBE409:
 807               	.LM165:
 808 0366 0E94 0000 		call _Z18i2cWaitForCompletev
 809               	.LM166:
 810 036a 80ED      		ldi r24,lo8(-48)
 811 036c 0E94 0000 		call _Z11i2cSendByteh
 812               	.LM167:
 813 0370 0E94 0000 		call _Z18i2cWaitForCompletev
 814               	.LM168:
 815 0374 81E2      		ldi r24,lo8(33)
 816 0376 0E94 0000 		call _Z11i2cSendByteh
 817               	.LM169:
 818 037a 0E94 0000 		call _Z18i2cWaitForCompletev
 819               	.LBB411:
 820               	.LBB412:
 821               	.LM170:
 822 037e 519A      		sbi 42-32,1
 823               	.LM171:
 824 0380 F801      		movw r30,r16
 825 0382 F082      		st Z,r15
 826               	.LBE412:
 827               	.LBE411:
 828               	.LM172:
 829 0384 81ED      		ldi r24,lo8(-47)
 830 0386 0E94 0000 		call _Z11i2cSendByteh
 831               	.LM173:
 832 038a 0E94 0000 		call _Z18i2cWaitForCompletev
 833               	.LM174:
 834 038e 80E0      		ldi r24,lo8(0)
 835 0390 0E94 0000 		call _Z14i2cReceiveByteh
 836               	.LM175:
 837 0394 0E94 0000 		call _Z18i2cWaitForCompletev
 838               	.LBB413:
 839               	.LBB414:
 840               	.LM176:
 841 0398 8BEB      		ldi r24,lo8(187)
 842 039a C82E      		mov r12,r24
 843 039c D12C      		mov r13,__zero_reg__
 844 039e F601      		movw r30,r12
 845 03a0 8081      		ld r24,Z
 846               	.LVL27:
 847               	.LBE414:
 848               	.LBE413:
 849               	.LM177:
 850 03a2 0E94 0000 		call _Z18i2cWaitForCompletev
 851               	.LVL28:
 852               	.LBB415:
 853               	.LBB416:
 854               	.LM178:
 855 03a6 B4E9      		ldi r27,lo8(-108)
 856 03a8 EB2E      		mov r14,r27
 857 03aa F801      		movw r30,r16
 858 03ac E082      		st Z,r14
 859               	.LBE416:
 860               	.LBE415:
 861               	.LM179:
 862 03ae 8081      		ld r24,Z
 863 03b0 8B7F      		andi r24,lo8(-5)
 864 03b2 8083      		st Z,r24
 865               	.LM180:
 866 03b4 8081      		ld r24,Z
 867 03b6 8460      		ori r24,lo8(4)
 868 03b8 8083      		st Z,r24
 869               	.LBB417:
 870               	.LBB418:
 871               	.LM181:
 872 03ba 519A      		sbi 42-32,1
 873               	.LM182:
 874 03bc F082      		st Z,r15
 875               	.LBE418:
 876               	.LBE417:
 877               	.LM183:
 878 03be 0E94 0000 		call _Z18i2cWaitForCompletev
 879               	.LM184:
 880 03c2 80ED      		ldi r24,lo8(-48)
 881 03c4 0E94 0000 		call _Z11i2cSendByteh
 882               	.LM185:
 883 03c8 0E94 0000 		call _Z18i2cWaitForCompletev
 884               	.LM186:
 885 03cc 82E2      		ldi r24,lo8(34)
 886 03ce 0E94 0000 		call _Z11i2cSendByteh
 887               	.LM187:
 888 03d2 0E94 0000 		call _Z18i2cWaitForCompletev
 889               	.LBB419:
 890               	.LBB420:
 891               	.LM188:
 892 03d6 519A      		sbi 42-32,1
 893               	.LM189:
 894 03d8 F801      		movw r30,r16
 895 03da F082      		st Z,r15
 896               	.LBE420:
 897               	.LBE419:
 898               	.LM190:
 899 03dc 81ED      		ldi r24,lo8(-47)
 900 03de 0E94 0000 		call _Z11i2cSendByteh
 901               	.LM191:
 902 03e2 0E94 0000 		call _Z18i2cWaitForCompletev
 903               	.LM192:
 904 03e6 80E0      		ldi r24,lo8(0)
 905 03e8 0E94 0000 		call _Z14i2cReceiveByteh
 906               	.LM193:
 907 03ec 0E94 0000 		call _Z18i2cWaitForCompletev
 908               	.LBB421:
 909               	.LBB422:
 910               	.LM194:
 911 03f0 F601      		movw r30,r12
 912 03f2 F080      		ld r15,Z
 913               	.LVL29:
 914               	.LBE422:
 915               	.LBE421:
 916               	.LM195:
 917 03f4 0E94 0000 		call _Z18i2cWaitForCompletev
 918               	.LBB423:
 919               	.LBB424:
 920               	.LM196:
 921 03f8 F801      		movw r30,r16
 922 03fa E082      		st Z,r14
 923               	.LBE424:
 924               	.LBE423:
 925               	.LM197:
 926 03fc 8081      		ld r24,Z
 927 03fe 8B7F      		andi r24,lo8(-5)
 928 0400 8083      		st Z,r24
 929               	.LM198:
 930 0402 8081      		ld r24,Z
 931 0404 8460      		ori r24,lo8(4)
 932 0406 8083      		st Z,r24
 933               	.LBE408:
 934               	.LM199:
 935 0408 8F2D      		mov r24,r15
 936               	/* epilogue start */
 937 040a 1F91      		pop r17
 938 040c 0F91      		pop r16
 939 040e FF90      		pop r15
 940               	.LVL30:
 941 0410 EF90      		pop r14
 942 0412 DF90      		pop r13
 943 0414 CF90      		pop r12
 944 0416 0895      		ret
 945               	.LFE121:
 947               	.global	_Z18accelerometer_initv
 949               	_Z18accelerometer_initv:
 950               	.LFB122:
 951               	.LM200:
 952 0418 EF92      		push r14
 953 041a FF92      		push r15
 954 041c 0F93      		push r16
 955 041e 1F93      		push r17
 956               	/* prologue: function */
 957               	/* frame size = 0 */
 958               	.LBB425:
 959               	.LBB426:
 960               	.LM201:
 961 0420 519A      		sbi 42-32,1
 962               	.LM202:
 963 0422 0CEB      		ldi r16,lo8(188)
 964 0424 10E0      		ldi r17,hi8(188)
 965 0426 34EA      		ldi r19,lo8(-92)
 966 0428 E32E      		mov r14,r19
 967 042a F801      		movw r30,r16
 968 042c E082      		st Z,r14
 969               	.LBE426:
 970               	.LBE425:
 971               	.LM203:
 972 042e 0E94 0000 		call _Z18i2cWaitForCompletev
 973               	.LM204:
 974 0432 86EA      		ldi r24,lo8(-90)
 975 0434 0E94 0000 		call _Z11i2cSendByteh
 976               	.LM205:
 977 0438 0E94 0000 		call _Z18i2cWaitForCompletev
 978               	.LM206:
 979 043c 8DE2      		ldi r24,lo8(45)
 980 043e 0E94 0000 		call _Z11i2cSendByteh
 981               	.LM207:
 982 0442 0E94 0000 		call _Z18i2cWaitForCompletev
 983               	.LM208:
 984 0446 88E0      		ldi r24,lo8(8)
 985 0448 0E94 0000 		call _Z11i2cSendByteh
 986               	.LM209:
 987 044c 0E94 0000 		call _Z18i2cWaitForCompletev
 988               	.LBB427:
 989               	.LBB428:
 990               	.LM210:
 991 0450 24E9      		ldi r18,lo8(-108)
 992 0452 F22E      		mov r15,r18
 993 0454 F801      		movw r30,r16
 994 0456 F082      		st Z,r15
 995               	.LBE428:
 996               	.LBE427:
 997               	.LBB429:
 998               	.LBB430:
 999               	.LM211:
 1000 0458 519A      		sbi 42-32,1
 1001               	.LM212:
 1002 045a E082      		st Z,r14
 1003               	.LBE430:
 1004               	.LBE429:
 1005               	.LM213:
 1006 045c 0E94 0000 		call _Z18i2cWaitForCompletev
 1007               	.LM214:
 1008 0460 86EA      		ldi r24,lo8(-90)
 1009 0462 0E94 0000 		call _Z11i2cSendByteh
 1010               	.LM215:
 1011 0466 0E94 0000 		call _Z18i2cWaitForCompletev
 1012               	.LM216:
 1013 046a 81E3      		ldi r24,lo8(49)
 1014 046c 0E94 0000 		call _Z11i2cSendByteh
 1015               	.LM217:
 1016 0470 0E94 0000 		call _Z18i2cWaitForCompletev
 1017               	.LM218:
 1018 0474 88E0      		ldi r24,lo8(8)
 1019 0476 0E94 0000 		call _Z11i2cSendByteh
 1020               	.LM219:
 1021 047a 0E94 0000 		call _Z18i2cWaitForCompletev
 1022               	.LBB431:
 1023               	.LBB432:
 1024               	.LM220:
 1025 047e F801      		movw r30,r16
 1026 0480 F082      		st Z,r15
 1027               	/* epilogue start */
 1028               	.LBE432:
 1029               	.LBE431:
 1030               	.LM221:
 1031 0482 1F91      		pop r17
 1032 0484 0F91      		pop r16
 1033 0486 FF90      		pop r15
 1034 0488 EF90      		pop r14
 1035 048a 0895      		ret
 1036               	.LFE122:
 1038               	.global	_Z7x_accelv
 1040               	_Z7x_accelv:
 1041               	.LFB124:
 1042               	.LM222:
 1043 048c AF92      		push r10
 1044 048e BF92      		push r11
 1045 0490 CF92      		push r12
 1046 0492 DF92      		push r13
 1047 0494 EF92      		push r14
 1048 0496 FF92      		push r15
 1049 0498 0F93      		push r16
 1050 049a 1F93      		push r17
 1051               	/* prologue: function */
 1052               	/* frame size = 0 */
 1053               	.LBB433:
 1054               	.LBB434:
 1055               	.LBB435:
 1056               	.LM223:
 1057 049c 519A      		sbi 42-32,1
 1058               	.LM224:
 1059 049e 0CEB      		ldi r16,lo8(188)
 1060 04a0 10E0      		ldi r17,hi8(188)
 1061 04a2 64EA      		ldi r22,lo8(-92)
 1062 04a4 B62E      		mov r11,r22
 1063 04a6 F801      		movw r30,r16
 1064 04a8 B082      		st Z,r11
 1065               	.LBE435:
 1066               	.LBE434:
 1067               	.LM225:
 1068 04aa 0E94 0000 		call _Z18i2cWaitForCompletev
 1069               	.LM226:
 1070 04ae 86EA      		ldi r24,lo8(-90)
 1071 04b0 0E94 0000 		call _Z11i2cSendByteh
 1072               	.LM227:
 1073 04b4 0E94 0000 		call _Z18i2cWaitForCompletev
 1074               	.LM228:
 1075 04b8 82E3      		ldi r24,lo8(50)
 1076 04ba 0E94 0000 		call _Z11i2cSendByteh
 1077               	.LM229:
 1078 04be 0E94 0000 		call _Z18i2cWaitForCompletev
 1079               	.LBB436:
 1080               	.LBB437:
 1081               	.LM230:
 1082 04c2 54E9      		ldi r21,lo8(-108)
 1083 04c4 A52E      		mov r10,r21
 1084 04c6 F801      		movw r30,r16
 1085 04c8 A082      		st Z,r10
 1086               	.LBE437:
 1087               	.LBE436:
 1088               	.LBB438:
 1089               	.LBB439:
 1090               	.LM231:
 1091 04ca 519A      		sbi 42-32,1
 1092               	.LM232:
 1093 04cc B082      		st Z,r11
 1094               	.LBE439:
 1095               	.LBE438:
 1096               	.LM233:
 1097 04ce 0E94 0000 		call _Z18i2cWaitForCompletev
 1098               	.LM234:
 1099 04d2 87EA      		ldi r24,lo8(-89)
 1100 04d4 0E94 0000 		call _Z11i2cSendByteh
 1101               	.LM235:
 1102 04d8 0E94 0000 		call _Z18i2cWaitForCompletev
 1103               	.LM236:
 1104 04dc 8FEF      		ldi r24,lo8(-1)
 1105 04de 0E94 0000 		call _Z14i2cReceiveByteh
 1106               	.LM237:
 1107 04e2 0E94 0000 		call _Z18i2cWaitForCompletev
 1108               	.LBB440:
 1109               	.LBB441:
 1110               	.LM238:
 1111 04e6 4BEB      		ldi r20,lo8(187)
 1112 04e8 C42E      		mov r12,r20
 1113 04ea D12C      		mov r13,__zero_reg__
 1114 04ec F601      		movw r30,r12
 1115 04ee E080      		ld r14,Z
 1116               	.LVL31:
 1117               	.LBE441:
 1118               	.LBE440:
 1119               	.LM239:
 1120 04f0 0E94 0000 		call _Z18i2cWaitForCompletev
 1121               	.LM240:
 1122 04f4 80E0      		ldi r24,lo8(0)
 1123 04f6 0E94 0000 		call _Z14i2cReceiveByteh
 1124               	.LM241:
 1125 04fa 0E94 0000 		call _Z18i2cWaitForCompletev
 1126               	.LBB442:
 1127               	.LBB443:
 1128               	.LM242:
 1129 04fe F601      		movw r30,r12
 1130 0500 8081      		ld r24,Z
 1131               	.LVL32:
 1132               	.LBE443:
 1133               	.LBE442:
 1134               	.LM243:
 1135 0502 0E94 0000 		call _Z18i2cWaitForCompletev
 1136               	.LVL33:
 1137               	.LBB444:
 1138               	.LBB445:
 1139               	.LM244:
 1140 0506 F801      		movw r30,r16
 1141 0508 A082      		st Z,r10
 1142               	.LBE445:
 1143               	.LBE444:
 1144               	.LBB446:
 1145               	.LBB447:
 1146               	.LM245:
 1147 050a 519A      		sbi 42-32,1
 1148               	.LM246:
 1149 050c B082      		st Z,r11
 1150               	.LBE447:
 1151               	.LBE446:
 1152               	.LM247:
 1153 050e 0E94 0000 		call _Z18i2cWaitForCompletev
 1154               	.LM248:
 1155 0512 86EA      		ldi r24,lo8(-90)
 1156 0514 0E94 0000 		call _Z11i2cSendByteh
 1157               	.LM249:
 1158 0518 0E94 0000 		call _Z18i2cWaitForCompletev
 1159               	.LM250:
 1160 051c 83E3      		ldi r24,lo8(51)
 1161 051e 0E94 0000 		call _Z11i2cSendByteh
 1162               	.LM251:
 1163 0522 0E94 0000 		call _Z18i2cWaitForCompletev
 1164               	.LBB448:
 1165               	.LBB449:
 1166               	.LM252:
 1167 0526 F801      		movw r30,r16
 1168 0528 A082      		st Z,r10
 1169               	.LBE449:
 1170               	.LBE448:
 1171               	.LBB450:
 1172               	.LBB451:
 1173               	.LM253:
 1174 052a 519A      		sbi 42-32,1
 1175               	.LM254:
 1176 052c B082      		st Z,r11
 1177               	.LBE451:
 1178               	.LBE450:
 1179               	.LM255:
 1180 052e 0E94 0000 		call _Z18i2cWaitForCompletev
 1181               	.LM256:
 1182 0532 87EA      		ldi r24,lo8(-89)
 1183 0534 0E94 0000 		call _Z11i2cSendByteh
 1184               	.LM257:
 1185 0538 0E94 0000 		call _Z18i2cWaitForCompletev
 1186               	.LM258:
 1187 053c 8FEF      		ldi r24,lo8(-1)
 1188 053e 0E94 0000 		call _Z14i2cReceiveByteh
 1189               	.LM259:
 1190 0542 0E94 0000 		call _Z18i2cWaitForCompletev
 1191               	.LBB452:
 1192               	.LBB453:
 1193               	.LM260:
 1194 0546 F601      		movw r30,r12
 1195 0548 B080      		ld r11,Z
 1196               	.LVL34:
 1197               	.LBE453:
 1198               	.LBE452:
 1199               	.LM261:
 1200 054a 0E94 0000 		call _Z18i2cWaitForCompletev
 1201               	.LM262:
 1202 054e 80E0      		ldi r24,lo8(0)
 1203 0550 0E94 0000 		call _Z14i2cReceiveByteh
 1204               	.LM263:
 1205 0554 0E94 0000 		call _Z18i2cWaitForCompletev
 1206               	.LBB454:
 1207               	.LBB455:
 1208               	.LM264:
 1209 0558 F601      		movw r30,r12
 1210 055a C080      		ld r12,Z
 1211               	.LVL35:
 1212               	.LBE455:
 1213               	.LBE454:
 1214               	.LM265:
 1215 055c 0E94 0000 		call _Z18i2cWaitForCompletev
 1216               	.LBB456:
 1217               	.LBB457:
 1218               	.LM266:
 1219 0560 F801      		movw r30,r16
 1220 0562 A082      		st Z,r10
 1221 0564 9B2D      		mov r25,r11
 1222               	.LVL36:
 1223 0566 80E0      		ldi r24,lo8(0)
 1224               	.LVL37:
 1225 0568 FF24      		clr r15
 1226 056a E82A      		or r14,r24
 1227 056c F92A      		or r15,r25
 1228               	.LVL38:
 1229               	.LBE457:
 1230               	.LBE456:
 1231               	.LBE433:
 1232               	.LM267:
 1233 056e C701      		movw r24,r14
 1234               	.LVL39:
 1235               	/* epilogue start */
 1236 0570 1F91      		pop r17
 1237 0572 0F91      		pop r16
 1238 0574 FF90      		pop r15
 1239 0576 EF90      		pop r14
 1240 0578 DF90      		pop r13
 1241 057a CF90      		pop r12
 1242               	.LVL40:
 1243 057c BF90      		pop r11
 1244 057e AF90      		pop r10
 1245 0580 0895      		ret
 1246               	.LFE124:
 1248               	.global	_Z7y_accelv
 1250               	_Z7y_accelv:
 1251               	.LFB125:
 1252               	.LM268:
 1253 0582 AF92      		push r10
 1254 0584 BF92      		push r11
 1255 0586 CF92      		push r12
 1256 0588 DF92      		push r13
 1257 058a EF92      		push r14
 1258 058c FF92      		push r15
 1259 058e 0F93      		push r16
 1260 0590 1F93      		push r17
 1261               	/* prologue: function */
 1262               	/* frame size = 0 */
 1263               	.LBB458:
 1264               	.LBB459:
 1265               	.LBB460:
 1266               	.LM269:
 1267 0592 519A      		sbi 42-32,1
 1268               	.LM270:
 1269 0594 0CEB      		ldi r16,lo8(188)
 1270 0596 10E0      		ldi r17,hi8(188)
 1271 0598 F4EA      		ldi r31,lo8(-92)
 1272 059a BF2E      		mov r11,r31
 1273 059c F801      		movw r30,r16
 1274 059e B082      		st Z,r11
 1275               	.LBE460:
 1276               	.LBE459:
 1277               	.LM271:
 1278 05a0 0E94 0000 		call _Z18i2cWaitForCompletev
 1279               	.LM272:
 1280 05a4 86EA      		ldi r24,lo8(-90)
 1281 05a6 0E94 0000 		call _Z11i2cSendByteh
 1282               	.LM273:
 1283 05aa 0E94 0000 		call _Z18i2cWaitForCompletev
 1284               	.LM274:
 1285 05ae 84E3      		ldi r24,lo8(52)
 1286 05b0 0E94 0000 		call _Z11i2cSendByteh
 1287               	.LM275:
 1288 05b4 0E94 0000 		call _Z18i2cWaitForCompletev
 1289               	.LBB461:
 1290               	.LBB462:
 1291               	.LM276:
 1292 05b8 E4E9      		ldi r30,lo8(-108)
 1293 05ba AE2E      		mov r10,r30
 1294 05bc F801      		movw r30,r16
 1295 05be A082      		st Z,r10
 1296               	.LBE462:
 1297               	.LBE461:
 1298               	.LBB463:
 1299               	.LBB464:
 1300               	.LM277:
 1301 05c0 519A      		sbi 42-32,1
 1302               	.LM278:
 1303 05c2 B082      		st Z,r11
 1304               	.LBE464:
 1305               	.LBE463:
 1306               	.LM279:
 1307 05c4 0E94 0000 		call _Z18i2cWaitForCompletev
 1308               	.LM280:
 1309 05c8 87EA      		ldi r24,lo8(-89)
 1310 05ca 0E94 0000 		call _Z11i2cSendByteh
 1311               	.LM281:
 1312 05ce 0E94 0000 		call _Z18i2cWaitForCompletev
 1313               	.LM282:
 1314 05d2 8FEF      		ldi r24,lo8(-1)
 1315 05d4 0E94 0000 		call _Z14i2cReceiveByteh
 1316               	.LM283:
 1317 05d8 0E94 0000 		call _Z18i2cWaitForCompletev
 1318               	.LBB465:
 1319               	.LBB466:
 1320               	.LM284:
 1321 05dc 7BEB      		ldi r23,lo8(187)
 1322 05de C72E      		mov r12,r23
 1323 05e0 D12C      		mov r13,__zero_reg__
 1324 05e2 F601      		movw r30,r12
 1325 05e4 E080      		ld r14,Z
 1326               	.LVL41:
 1327               	.LBE466:
 1328               	.LBE465:
 1329               	.LM285:
 1330 05e6 0E94 0000 		call _Z18i2cWaitForCompletev
 1331               	.LM286:
 1332 05ea 80E0      		ldi r24,lo8(0)
 1333 05ec 0E94 0000 		call _Z14i2cReceiveByteh
 1334               	.LM287:
 1335 05f0 0E94 0000 		call _Z18i2cWaitForCompletev
 1336               	.LBB467:
 1337               	.LBB468:
 1338               	.LM288:
 1339 05f4 F601      		movw r30,r12
 1340 05f6 8081      		ld r24,Z
 1341               	.LVL42:
 1342               	.LBE468:
 1343               	.LBE467:
 1344               	.LM289:
 1345 05f8 0E94 0000 		call _Z18i2cWaitForCompletev
 1346               	.LVL43:
 1347               	.LBB469:
 1348               	.LBB470:
 1349               	.LM290:
 1350 05fc F801      		movw r30,r16
 1351 05fe A082      		st Z,r10
 1352               	.LBE470:
 1353               	.LBE469:
 1354               	.LBB471:
 1355               	.LBB472:
 1356               	.LM291:
 1357 0600 519A      		sbi 42-32,1
 1358               	.LM292:
 1359 0602 B082      		st Z,r11
 1360               	.LBE472:
 1361               	.LBE471:
 1362               	.LM293:
 1363 0604 0E94 0000 		call _Z18i2cWaitForCompletev
 1364               	.LM294:
 1365 0608 86EA      		ldi r24,lo8(-90)
 1366 060a 0E94 0000 		call _Z11i2cSendByteh
 1367               	.LM295:
 1368 060e 0E94 0000 		call _Z18i2cWaitForCompletev
 1369               	.LM296:
 1370 0612 85E3      		ldi r24,lo8(53)
 1371 0614 0E94 0000 		call _Z11i2cSendByteh
 1372               	.LM297:
 1373 0618 0E94 0000 		call _Z18i2cWaitForCompletev
 1374               	.LBB473:
 1375               	.LBB474:
 1376               	.LM298:
 1377 061c F801      		movw r30,r16
 1378 061e A082      		st Z,r10
 1379               	.LBE474:
 1380               	.LBE473:
 1381               	.LBB475:
 1382               	.LBB476:
 1383               	.LM299:
 1384 0620 519A      		sbi 42-32,1
 1385               	.LM300:
 1386 0622 B082      		st Z,r11
 1387               	.LBE476:
 1388               	.LBE475:
 1389               	.LM301:
 1390 0624 0E94 0000 		call _Z18i2cWaitForCompletev
 1391               	.LM302:
 1392 0628 87EA      		ldi r24,lo8(-89)
 1393 062a 0E94 0000 		call _Z11i2cSendByteh
 1394               	.LM303:
 1395 062e 0E94 0000 		call _Z18i2cWaitForCompletev
 1396               	.LM304:
 1397 0632 8FEF      		ldi r24,lo8(-1)
 1398 0634 0E94 0000 		call _Z14i2cReceiveByteh
 1399               	.LM305:
 1400 0638 0E94 0000 		call _Z18i2cWaitForCompletev
 1401               	.LBB477:
 1402               	.LBB478:
 1403               	.LM306:
 1404 063c F601      		movw r30,r12
 1405 063e B080      		ld r11,Z
 1406               	.LVL44:
 1407               	.LBE478:
 1408               	.LBE477:
 1409               	.LM307:
 1410 0640 0E94 0000 		call _Z18i2cWaitForCompletev
 1411               	.LM308:
 1412 0644 80E0      		ldi r24,lo8(0)
 1413 0646 0E94 0000 		call _Z14i2cReceiveByteh
 1414               	.LM309:
 1415 064a 0E94 0000 		call _Z18i2cWaitForCompletev
 1416               	.LBB479:
 1417               	.LBB480:
 1418               	.LM310:
 1419 064e F601      		movw r30,r12
 1420 0650 C080      		ld r12,Z
 1421               	.LVL45:
 1422               	.LBE480:
 1423               	.LBE479:
 1424               	.LM311:
 1425 0652 0E94 0000 		call _Z18i2cWaitForCompletev
 1426               	.LBB481:
 1427               	.LBB482:
 1428               	.LM312:
 1429 0656 F801      		movw r30,r16
 1430 0658 A082      		st Z,r10
 1431 065a 9B2D      		mov r25,r11
 1432               	.LVL46:
 1433 065c 80E0      		ldi r24,lo8(0)
 1434               	.LVL47:
 1435 065e FF24      		clr r15
 1436 0660 E82A      		or r14,r24
 1437 0662 F92A      		or r15,r25
 1438               	.LVL48:
 1439               	.LBE482:
 1440               	.LBE481:
 1441               	.LBE458:
 1442               	.LM313:
 1443 0664 C701      		movw r24,r14
 1444               	.LVL49:
 1445               	/* epilogue start */
 1446 0666 1F91      		pop r17
 1447 0668 0F91      		pop r16
 1448 066a FF90      		pop r15
 1449 066c EF90      		pop r14
 1450 066e DF90      		pop r13
 1451 0670 CF90      		pop r12
 1452               	.LVL50:
 1453 0672 BF90      		pop r11
 1454 0674 AF90      		pop r10
 1455 0676 0895      		ret
 1456               	.LFE125:
 1458               	.global	_Z7z_accelv
 1460               	_Z7z_accelv:
 1461               	.LFB126:
 1462               	.LM314:
 1463 0678 AF92      		push r10
 1464 067a BF92      		push r11
 1465 067c CF92      		push r12
 1466 067e DF92      		push r13
 1467 0680 EF92      		push r14
 1468 0682 FF92      		push r15
 1469 0684 0F93      		push r16
 1470 0686 1F93      		push r17
 1471               	/* prologue: function */
 1472               	/* frame size = 0 */
 1473               	.LBB483:
 1474               	.LBB484:
 1475               	.LBB485:
 1476               	.LM315:
 1477 0688 519A      		sbi 42-32,1
 1478               	.LM316:
 1479 068a 0CEB      		ldi r16,lo8(188)
 1480 068c 10E0      		ldi r17,hi8(188)
 1481 068e 84EA      		ldi r24,lo8(-92)
 1482 0690 B82E      		mov r11,r24
 1483 0692 F801      		movw r30,r16
 1484 0694 B082      		st Z,r11
 1485               	.LBE485:
 1486               	.LBE484:
 1487               	.LM317:
 1488 0696 0E94 0000 		call _Z18i2cWaitForCompletev
 1489               	.LM318:
 1490 069a 86EA      		ldi r24,lo8(-90)
 1491 069c 0E94 0000 		call _Z11i2cSendByteh
 1492               	.LM319:
 1493 06a0 0E94 0000 		call _Z18i2cWaitForCompletev
 1494               	.LM320:
 1495 06a4 86E3      		ldi r24,lo8(54)
 1496 06a6 0E94 0000 		call _Z11i2cSendByteh
 1497               	.LM321:
 1498 06aa 0E94 0000 		call _Z18i2cWaitForCompletev
 1499               	.LBB486:
 1500               	.LBB487:
 1501               	.LM322:
 1502 06ae B4E9      		ldi r27,lo8(-108)
 1503 06b0 AB2E      		mov r10,r27
 1504 06b2 F801      		movw r30,r16
 1505 06b4 A082      		st Z,r10
 1506               	.LBE487:
 1507               	.LBE486:
 1508               	.LBB488:
 1509               	.LBB489:
 1510               	.LM323:
 1511 06b6 519A      		sbi 42-32,1
 1512               	.LM324:
 1513 06b8 B082      		st Z,r11
 1514               	.LBE489:
 1515               	.LBE488:
 1516               	.LM325:
 1517 06ba 0E94 0000 		call _Z18i2cWaitForCompletev
 1518               	.LM326:
 1519 06be 87EA      		ldi r24,lo8(-89)
 1520 06c0 0E94 0000 		call _Z11i2cSendByteh
 1521               	.LM327:
 1522 06c4 0E94 0000 		call _Z18i2cWaitForCompletev
 1523               	.LM328:
 1524 06c8 8FEF      		ldi r24,lo8(-1)
 1525 06ca 0E94 0000 		call _Z14i2cReceiveByteh
 1526               	.LM329:
 1527 06ce 0E94 0000 		call _Z18i2cWaitForCompletev
 1528               	.LBB490:
 1529               	.LBB491:
 1530               	.LM330:
 1531 06d2 ABEB      		ldi r26,lo8(187)
 1532 06d4 CA2E      		mov r12,r26
 1533 06d6 D12C      		mov r13,__zero_reg__
 1534 06d8 F601      		movw r30,r12
 1535 06da E080      		ld r14,Z
 1536               	.LVL51:
 1537               	.LBE491:
 1538               	.LBE490:
 1539               	.LM331:
 1540 06dc 0E94 0000 		call _Z18i2cWaitForCompletev
 1541               	.LM332:
 1542 06e0 80E0      		ldi r24,lo8(0)
 1543 06e2 0E94 0000 		call _Z14i2cReceiveByteh
 1544               	.LM333:
 1545 06e6 0E94 0000 		call _Z18i2cWaitForCompletev
 1546               	.LBB492:
 1547               	.LBB493:
 1548               	.LM334:
 1549 06ea F601      		movw r30,r12
 1550 06ec 8081      		ld r24,Z
 1551               	.LVL52:
 1552               	.LBE493:
 1553               	.LBE492:
 1554               	.LM335:
 1555 06ee 0E94 0000 		call _Z18i2cWaitForCompletev
 1556               	.LVL53:
 1557               	.LBB494:
 1558               	.LBB495:
 1559               	.LM336:
 1560 06f2 F801      		movw r30,r16
 1561 06f4 A082      		st Z,r10
 1562               	.LBE495:
 1563               	.LBE494:
 1564               	.LBB496:
 1565               	.LBB497:
 1566               	.LM337:
 1567 06f6 519A      		sbi 42-32,1
 1568               	.LM338:
 1569 06f8 B082      		st Z,r11
 1570               	.LBE497:
 1571               	.LBE496:
 1572               	.LM339:
 1573 06fa 0E94 0000 		call _Z18i2cWaitForCompletev
 1574               	.LM340:
 1575 06fe 86EA      		ldi r24,lo8(-90)
 1576 0700 0E94 0000 		call _Z11i2cSendByteh
 1577               	.LM341:
 1578 0704 0E94 0000 		call _Z18i2cWaitForCompletev
 1579               	.LM342:
 1580 0708 87E3      		ldi r24,lo8(55)
 1581 070a 0E94 0000 		call _Z11i2cSendByteh
 1582               	.LM343:
 1583 070e 0E94 0000 		call _Z18i2cWaitForCompletev
 1584               	.LBB498:
 1585               	.LBB499:
 1586               	.LM344:
 1587 0712 F801      		movw r30,r16
 1588 0714 A082      		st Z,r10
 1589               	.LBE499:
 1590               	.LBE498:
 1591               	.LBB500:
 1592               	.LBB501:
 1593               	.LM345:
 1594 0716 519A      		sbi 42-32,1
 1595               	.LM346:
 1596 0718 B082      		st Z,r11
 1597               	.LBE501:
 1598               	.LBE500:
 1599               	.LM347:
 1600 071a 0E94 0000 		call _Z18i2cWaitForCompletev
 1601               	.LM348:
 1602 071e 87EA      		ldi r24,lo8(-89)
 1603 0720 0E94 0000 		call _Z11i2cSendByteh
 1604               	.LM349:
 1605 0724 0E94 0000 		call _Z18i2cWaitForCompletev
 1606               	.LM350:
 1607 0728 8FEF      		ldi r24,lo8(-1)
 1608 072a 0E94 0000 		call _Z14i2cReceiveByteh
 1609               	.LM351:
 1610 072e 0E94 0000 		call _Z18i2cWaitForCompletev
 1611               	.LBB502:
 1612               	.LBB503:
 1613               	.LM352:
 1614 0732 F601      		movw r30,r12
 1615 0734 B080      		ld r11,Z
 1616               	.LVL54:
 1617               	.LBE503:
 1618               	.LBE502:
 1619               	.LM353:
 1620 0736 0E94 0000 		call _Z18i2cWaitForCompletev
 1621               	.LM354:
 1622 073a 80E0      		ldi r24,lo8(0)
 1623 073c 0E94 0000 		call _Z14i2cReceiveByteh
 1624               	.LM355:
 1625 0740 0E94 0000 		call _Z18i2cWaitForCompletev
 1626               	.LBB504:
 1627               	.LBB505:
 1628               	.LM356:
 1629 0744 F601      		movw r30,r12
 1630 0746 C080      		ld r12,Z
 1631               	.LVL55:
 1632               	.LBE505:
 1633               	.LBE504:
 1634               	.LM357:
 1635 0748 0E94 0000 		call _Z18i2cWaitForCompletev
 1636               	.LBB506:
 1637               	.LBB507:
 1638               	.LM358:
 1639 074c F801      		movw r30,r16
 1640 074e A082      		st Z,r10
 1641 0750 9B2D      		mov r25,r11
 1642               	.LVL56:
 1643 0752 80E0      		ldi r24,lo8(0)
 1644               	.LVL57:
 1645 0754 FF24      		clr r15
 1646 0756 E82A      		or r14,r24
 1647 0758 F92A      		or r15,r25
 1648               	.LVL58:
 1649               	.LBE507:
 1650               	.LBE506:
 1651               	.LBE483:
 1652               	.LM359:
 1653 075a C701      		movw r24,r14
 1654               	.LVL59:
 1655               	/* epilogue start */
 1656 075c 1F91      		pop r17
 1657 075e 0F91      		pop r16
 1658 0760 FF90      		pop r15
 1659 0762 EF90      		pop r14
 1660 0764 DF90      		pop r13
 1661 0766 CF90      		pop r12
 1662               	.LVL60:
 1663 0768 BF90      		pop r11
 1664 076a AF90      		pop r10
 1665 076c 0895      		ret
 1666               	.LFE126:
 1668               	.global	_Z17magnetometer_initv
 1670               	_Z17magnetometer_initv:
 1671               	.LFB127:
 1672               	.LM360:
 1673 076e EF92      		push r14
 1674 0770 FF92      		push r15
 1675 0772 0F93      		push r16
 1676 0774 1F93      		push r17
 1677               	/* prologue: function */
 1678               	/* frame size = 0 */
 1679               	.LBB508:
 1680               	.LBB509:
 1681               	.LM361:
 1682 0776 519A      		sbi 42-32,1
 1683               	.LM362:
 1684 0778 0CEB      		ldi r16,lo8(188)
 1685 077a 10E0      		ldi r17,hi8(188)
 1686 077c 24EA      		ldi r18,lo8(-92)
 1687 077e E22E      		mov r14,r18
 1688 0780 F801      		movw r30,r16
 1689 0782 E082      		st Z,r14
 1690               	.LBE509:
 1691               	.LBE508:
 1692               	.LM363:
 1693 0784 0E94 0000 		call _Z18i2cWaitForCompletev
 1694               	.LM364:
 1695 0788 8CE3      		ldi r24,lo8(60)
 1696 078a 0E94 0000 		call _Z11i2cSendByteh
 1697               	.LM365:
 1698 078e 0E94 0000 		call _Z18i2cWaitForCompletev
 1699               	.LM366:
 1700 0792 80E0      		ldi r24,lo8(0)
 1701 0794 0E94 0000 		call _Z11i2cSendByteh
 1702               	.LM367:
 1703 0798 0E94 0000 		call _Z18i2cWaitForCompletev
 1704               	.LM368:
 1705 079c 80E7      		ldi r24,lo8(112)
 1706 079e 0E94 0000 		call _Z11i2cSendByteh
 1707               	.LM369:
 1708 07a2 0E94 0000 		call _Z18i2cWaitForCompletev
 1709               	.LBB510:
 1710               	.LBB511:
 1711               	.LM370:
 1712 07a6 94E9      		ldi r25,lo8(-108)
 1713 07a8 F92E      		mov r15,r25
 1714 07aa F801      		movw r30,r16
 1715 07ac F082      		st Z,r15
 1716               	.LBE511:
 1717               	.LBE510:
 1718               	.LBB512:
 1719               	.LBB513:
 1720               	.LM371:
 1721 07ae 519A      		sbi 42-32,1
 1722               	.LM372:
 1723 07b0 E082      		st Z,r14
 1724               	.LBE513:
 1725               	.LBE512:
 1726               	.LM373:
 1727 07b2 0E94 0000 		call _Z18i2cWaitForCompletev
 1728               	.LM374:
 1729 07b6 8CE3      		ldi r24,lo8(60)
 1730 07b8 0E94 0000 		call _Z11i2cSendByteh
 1731               	.LM375:
 1732 07bc 0E94 0000 		call _Z18i2cWaitForCompletev
 1733               	.LM376:
 1734 07c0 81E0      		ldi r24,lo8(1)
 1735 07c2 0E94 0000 		call _Z11i2cSendByteh
 1736               	.LM377:
 1737 07c6 0E94 0000 		call _Z18i2cWaitForCompletev
 1738               	.LM378:
 1739 07ca 80EA      		ldi r24,lo8(-96)
 1740 07cc 0E94 0000 		call _Z11i2cSendByteh
 1741               	.LM379:
 1742 07d0 0E94 0000 		call _Z18i2cWaitForCompletev
 1743               	.LBB514:
 1744               	.LBB515:
 1745               	.LM380:
 1746 07d4 F801      		movw r30,r16
 1747 07d6 F082      		st Z,r15
 1748               	.LBE515:
 1749               	.LBE514:
 1750               	.LBB516:
 1751               	.LBB517:
 1752               	.LM381:
 1753 07d8 519A      		sbi 42-32,1
 1754               	.LM382:
 1755 07da E082      		st Z,r14
 1756               	.LBE517:
 1757               	.LBE516:
 1758               	.LM383:
 1759 07dc 0E94 0000 		call _Z18i2cWaitForCompletev
 1760               	.LM384:
 1761 07e0 8CE3      		ldi r24,lo8(60)
 1762 07e2 0E94 0000 		call _Z11i2cSendByteh
 1763               	.LM385:
 1764 07e6 0E94 0000 		call _Z18i2cWaitForCompletev
 1765               	.LM386:
 1766 07ea 82E0      		ldi r24,lo8(2)
 1767 07ec 0E94 0000 		call _Z11i2cSendByteh
 1768               	.LM387:
 1769 07f0 0E94 0000 		call _Z18i2cWaitForCompletev
 1770               	.LM388:
 1771 07f4 80E0      		ldi r24,lo8(0)
 1772 07f6 0E94 0000 		call _Z11i2cSendByteh
 1773               	.LM389:
 1774 07fa 0E94 0000 		call _Z18i2cWaitForCompletev
 1775               	.LBB518:
 1776               	.LBB519:
 1777               	.LM390:
 1778 07fe F801      		movw r30,r16
 1779 0800 F082      		st Z,r15
 1780               	/* epilogue start */
 1781               	.LBE519:
 1782               	.LBE518:
 1783               	.LM391:
 1784 0802 1F91      		pop r17
 1785 0804 0F91      		pop r16
 1786 0806 FF90      		pop r15
 1787 0808 EF90      		pop r14
 1788 080a 0895      		ret
 1789               	.LFE127:
 1791               	.global	_Z19magnetometer_valuesv
 1793               	_Z19magnetometer_valuesv:
 1794               	.LFB129:
 1795               	.LM392:
 1796 080c AF92      		push r10
 1797 080e BF92      		push r11
 1798 0810 DF92      		push r13
 1799 0812 EF92      		push r14
 1800 0814 FF92      		push r15
 1801 0816 0F93      		push r16
 1802 0818 1F93      		push r17
 1803               	/* prologue: function */
 1804               	/* frame size = 0 */
 1805               	.LBB520:
 1806               	.LM393:
 1807 081a 0E94 0000 		call _Z17magnetometer_initv
 1808               	.LBB521:
 1809               	.LBB522:
 1810               	.LM394:
 1811 081e 519A      		sbi 42-32,1
 1812               	.LM395:
 1813 0820 4CEB      		ldi r20,lo8(188)
 1814 0822 A42E      		mov r10,r20
 1815 0824 B12C      		mov r11,__zero_reg__
 1816 0826 84EA      		ldi r24,lo8(-92)
 1817 0828 F501      		movw r30,r10
 1818 082a 8083      		st Z,r24
 1819               	.LBE522:
 1820               	.LBE521:
 1821               	.LM396:
 1822 082c 0E94 0000 		call _Z18i2cWaitForCompletev
 1823               	.LM397:
 1824 0830 8DE3      		ldi r24,lo8(61)
 1825 0832 0E94 0000 		call _Z11i2cSendByteh
 1826               	.LM398:
 1827 0836 0E94 0000 		call _Z18i2cWaitForCompletev
 1828               	.LM399:
 1829 083a 8FEF      		ldi r24,lo8(-1)
 1830 083c 0E94 0000 		call _Z14i2cReceiveByteh
 1831               	.LM400:
 1832 0840 0E94 0000 		call _Z18i2cWaitForCompletev
 1833               	.LBB523:
 1834               	.LBB524:
 1835               	.LM401:
 1836 0844 3BEB      		ldi r19,lo8(187)
 1837 0846 E32E      		mov r14,r19
 1838 0848 F12C      		mov r15,__zero_reg__
 1839 084a F701      		movw r30,r14
 1840 084c D080      		ld r13,Z
 1841               	.LVL61:
 1842               	.LBE524:
 1843               	.LBE523:
 1844               	.LM402:
 1845 084e 0E94 0000 		call _Z18i2cWaitForCompletev
 1846               	.LM403:
 1847 0852 8FEF      		ldi r24,lo8(-1)
 1848 0854 0E94 0000 		call _Z14i2cReceiveByteh
 1849               	.LM404:
 1850 0858 0E94 0000 		call _Z18i2cWaitForCompletev
 1851               	.LBB525:
 1852               	.LBB526:
 1853               	.LM405:
 1854 085c F701      		movw r30,r14
 1855 085e 0081      		ld r16,Z
 1856               	.LVL62:
 1857               	.LBE526:
 1858               	.LBE525:
 1859               	.LM406:
 1860 0860 0E94 0000 		call _Z18i2cWaitForCompletev
 1861               	.LM407:
 1862 0864 9D2D      		mov r25,r13
 1863               	.LVL63:
 1864 0866 80E0      		ldi r24,lo8(0)
 1865               	.LVL64:
 1866 0868 10E0      		ldi r17,lo8(0)
 1867               	.LVL65:
 1868 086a 802B      		or r24,r16
 1869 086c 912B      		or r25,r17
 1870               	.LVL66:
 1871 086e 9093 0000 		sts (X_MAG)+1,r25
 1872 0872 8093 0000 		sts X_MAG,r24
 1873               	.LM408:
 1874 0876 8FEF      		ldi r24,lo8(-1)
 1875               	.LVL67:
 1876 0878 0E94 0000 		call _Z14i2cReceiveByteh
 1877               	.LVL68:
 1878               	.LM409:
 1879 087c 0E94 0000 		call _Z18i2cWaitForCompletev
 1880               	.LBB527:
 1881               	.LBB528:
 1882               	.LM410:
 1883 0880 F701      		movw r30,r14
 1884 0882 D080      		ld r13,Z
 1885               	.LVL69:
 1886               	.LBE528:
 1887               	.LBE527:
 1888               	.LM411:
 1889 0884 0E94 0000 		call _Z18i2cWaitForCompletev
 1890               	.LM412:
 1891 0888 8FEF      		ldi r24,lo8(-1)
 1892 088a 0E94 0000 		call _Z14i2cReceiveByteh
 1893               	.LM413:
 1894 088e 0E94 0000 		call _Z18i2cWaitForCompletev
 1895               	.LBB529:
 1896               	.LBB530:
 1897               	.LM414:
 1898 0892 F701      		movw r30,r14
 1899 0894 0081      		ld r16,Z
 1900               	.LVL70:
 1901               	.LBE530:
 1902               	.LBE529:
 1903               	.LM415:
 1904 0896 0E94 0000 		call _Z18i2cWaitForCompletev
 1905               	.LM416:
 1906 089a 9D2D      		mov r25,r13
 1907               	.LVL71:
 1908 089c 80E0      		ldi r24,lo8(0)
 1909               	.LVL72:
 1910 089e 10E0      		ldi r17,lo8(0)
 1911               	.LVL73:
 1912 08a0 802B      		or r24,r16
 1913 08a2 912B      		or r25,r17
 1914               	.LVL74:
 1915 08a4 9093 0000 		sts (Z_MAG)+1,r25
 1916 08a8 8093 0000 		sts Z_MAG,r24
 1917               	.LM417:
 1918 08ac 8FEF      		ldi r24,lo8(-1)
 1919               	.LVL75:
 1920 08ae 0E94 0000 		call _Z14i2cReceiveByteh
 1921               	.LVL76:
 1922               	.LM418:
 1923 08b2 0E94 0000 		call _Z18i2cWaitForCompletev
 1924               	.LBB531:
 1925               	.LBB532:
 1926               	.LM419:
 1927 08b6 F701      		movw r30,r14
 1928 08b8 D080      		ld r13,Z
 1929               	.LVL77:
 1930               	.LBE532:
 1931               	.LBE531:
 1932               	.LM420:
 1933 08ba 0E94 0000 		call _Z18i2cWaitForCompletev
 1934               	.LM421:
 1935 08be 8FEF      		ldi r24,lo8(-1)
 1936 08c0 0E94 0000 		call _Z14i2cReceiveByteh
 1937               	.LM422:
 1938 08c4 0E94 0000 		call _Z18i2cWaitForCompletev
 1939               	.LBB533:
 1940               	.LBB534:
 1941               	.LM423:
 1942 08c8 F701      		movw r30,r14
 1943 08ca 0081      		ld r16,Z
 1944               	.LVL78:
 1945               	.LBE534:
 1946               	.LBE533:
 1947               	.LM424:
 1948 08cc 0E94 0000 		call _Z18i2cWaitForCompletev
 1949               	.LM425:
 1950 08d0 9D2D      		mov r25,r13
 1951               	.LVL79:
 1952 08d2 80E0      		ldi r24,lo8(0)
 1953               	.LVL80:
 1954 08d4 10E0      		ldi r17,lo8(0)
 1955               	.LVL81:
 1956 08d6 802B      		or r24,r16
 1957 08d8 912B      		or r25,r17
 1958               	.LVL82:
 1959 08da 9093 0000 		sts (Y_MAG)+1,r25
 1960 08de 8093 0000 		sts Y_MAG,r24
 1961               	.LM426:
 1962 08e2 8DE3      		ldi r24,lo8(61)
 1963               	.LVL83:
 1964 08e4 0E94 0000 		call _Z11i2cSendByteh
 1965               	.LVL84:
 1966               	.LM427:
 1967 08e8 0E94 0000 		call _Z18i2cWaitForCompletev
 1968               	.LBB535:
 1969               	.LBB536:
 1970               	.LM428:
 1971 08ec 84E9      		ldi r24,lo8(-108)
 1972 08ee F501      		movw r30,r10
 1973 08f0 8083      		st Z,r24
 1974               	/* epilogue start */
 1975               	.LBE536:
 1976               	.LBE535:
 1977               	.LBE520:
 1978               	.LM429:
 1979 08f2 1F91      		pop r17
 1980               	.LVL85:
 1981 08f4 0F91      		pop r16
 1982               	.LVL86:
 1983 08f6 FF90      		pop r15
 1984 08f8 EF90      		pop r14
 1985 08fa DF90      		pop r13
 1986 08fc BF90      		pop r11
 1987 08fe AF90      		pop r10
 1988 0900 0895      		ret
 1989               	.LFE129:
 1991               	.global	_Z14compass_configv
 1993               	_Z14compass_configv:
 1994               	.LFB130:
 1995               	.LM430:
 1996               	/* prologue: function */
 1997               	/* frame size = 0 */
 1998               	.LM431:
 1999 0902 0E94 0000 		call _Z18accelerometer_initv
 2000               	.LM432:
 2001 0906 0E94 0000 		call _Z17magnetometer_initv
 2002               	/* epilogue start */
 2003               	.LM433:
 2004 090a 0895      		ret
 2005               	.LFE130:
 2007               	.global	_Z17compass_read_dataP6vectorS0_
 2009               	_Z17compass_read_dataP6vectorS0_:
 2010               	.LFB131:
 2011               	.LM434:
 2012               	.LVL87:
 2013 090c 2F92      		push r2
 2014 090e 3F92      		push r3
 2015 0910 4F92      		push r4
 2016 0912 5F92      		push r5
 2017 0914 6F92      		push r6
 2018 0916 7F92      		push r7
 2019 0918 8F92      		push r8
 2020 091a 9F92      		push r9
 2021 091c AF92      		push r10
 2022 091e BF92      		push r11
 2023 0920 CF92      		push r12
 2024 0922 DF92      		push r13
 2025 0924 EF92      		push r14
 2026 0926 FF92      		push r15
 2027 0928 0F93      		push r16
 2028 092a 1F93      		push r17
 2029 092c DF93      		push r29
 2030 092e CF93      		push r28
 2031 0930 00D0      		rcall .
 2032 0932 00D0      		rcall .
 2033 0934 0F92      		push __tmp_reg__
 2034 0936 CDB7      		in r28,__SP_L__
 2035 0938 DEB7      		in r29,__SP_H__
 2036               	/* prologue: function */
 2037               	/* frame size = 5 */
 2038 093a 9D83      		std Y+5,r25
 2039 093c 8C83      		std Y+4,r24
 2040 093e 7B83      		std Y+3,r23
 2041 0940 6A83      		std Y+2,r22
 2042               	.LBB537:
 2043               	.LBB538:
 2044               	.LBB539:
 2045               	.LM435:
 2046 0942 519A      		sbi 42-32,1
 2047               	.LM436:
 2048 0944 0CEB      		ldi r16,lo8(188)
 2049 0946 10E0      		ldi r17,hi8(188)
 2050 0948 74EA      		ldi r23,lo8(-92)
 2051 094a D72E      		mov r13,r23
 2052 094c F801      		movw r30,r16
 2053 094e D082      		st Z,r13
 2054               	.LBE539:
 2055               	.LBE538:
 2056               	.LM437:
 2057 0950 0E94 0000 		call _Z18i2cWaitForCompletev
 2058               	.LVL88:
 2059               	.LM438:
 2060 0954 86EA      		ldi r24,lo8(-90)
 2061 0956 0E94 0000 		call _Z11i2cSendByteh
 2062               	.LM439:
 2063 095a 0E94 0000 		call _Z18i2cWaitForCompletev
 2064               	.LM440:
 2065 095e 82E3      		ldi r24,lo8(50)
 2066 0960 0E94 0000 		call _Z11i2cSendByteh
 2067               	.LM441:
 2068 0964 0E94 0000 		call _Z18i2cWaitForCompletev
 2069               	.LBB540:
 2070               	.LBB541:
 2071               	.LM442:
 2072 0968 64E9      		ldi r22,lo8(-108)
 2073 096a 962E      		mov r9,r22
 2074 096c F801      		movw r30,r16
 2075 096e 9082      		st Z,r9
 2076               	.LBE541:
 2077               	.LBE540:
 2078               	.LBB542:
 2079               	.LBB543:
 2080               	.LM443:
 2081 0970 519A      		sbi 42-32,1
 2082               	.LM444:
 2083 0972 D082      		st Z,r13
 2084               	.LBE543:
 2085               	.LBE542:
 2086               	.LM445:
 2087 0974 0E94 0000 		call _Z18i2cWaitForCompletev
 2088               	.LM446:
 2089 0978 87EA      		ldi r24,lo8(-89)
 2090 097a 0E94 0000 		call _Z11i2cSendByteh
 2091               	.LM447:
 2092 097e 0E94 0000 		call _Z18i2cWaitForCompletev
 2093               	.LM448:
 2094 0982 8FEF      		ldi r24,lo8(-1)
 2095 0984 0E94 0000 		call _Z14i2cReceiveByteh
 2096               	.LM449:
 2097 0988 0E94 0000 		call _Z18i2cWaitForCompletev
 2098               	.LBB544:
 2099               	.LBB545:
 2100               	.LM450:
 2101 098c 5BEB      		ldi r21,lo8(187)
 2102 098e E52E      		mov r14,r21
 2103 0990 F12C      		mov r15,__zero_reg__
 2104 0992 F701      		movw r30,r14
 2105 0994 2080      		ld r2,Z
 2106               	.LVL89:
 2107               	.LBE545:
 2108               	.LBE544:
 2109               	.LM451:
 2110 0996 0E94 0000 		call _Z18i2cWaitForCompletev
 2111               	.LM452:
 2112 099a 80E0      		ldi r24,lo8(0)
 2113 099c 0E94 0000 		call _Z14i2cReceiveByteh
 2114               	.LM453:
 2115 09a0 0E94 0000 		call _Z18i2cWaitForCompletev
 2116               	.LBB546:
 2117               	.LBB547:
 2118               	.LM454:
 2119 09a4 F701      		movw r30,r14
 2120 09a6 8081      		ld r24,Z
 2121               	.LVL90:
 2122               	.LBE547:
 2123               	.LBE546:
 2124               	.LM455:
 2125 09a8 0E94 0000 		call _Z18i2cWaitForCompletev
 2126               	.LVL91:
 2127               	.LBB548:
 2128               	.LBB549:
 2129               	.LM456:
 2130 09ac F801      		movw r30,r16
 2131 09ae 9082      		st Z,r9
 2132               	.LBE549:
 2133               	.LBE548:
 2134               	.LBB550:
 2135               	.LBB551:
 2136               	.LM457:
 2137 09b0 519A      		sbi 42-32,1
 2138               	.LM458:
 2139 09b2 D082      		st Z,r13
 2140               	.LBE551:
 2141               	.LBE550:
 2142               	.LM459:
 2143 09b4 0E94 0000 		call _Z18i2cWaitForCompletev
 2144               	.LM460:
 2145 09b8 86EA      		ldi r24,lo8(-90)
 2146 09ba 0E94 0000 		call _Z11i2cSendByteh
 2147               	.LM461:
 2148 09be 0E94 0000 		call _Z18i2cWaitForCompletev
 2149               	.LM462:
 2150 09c2 83E3      		ldi r24,lo8(51)
 2151 09c4 0E94 0000 		call _Z11i2cSendByteh
 2152               	.LM463:
 2153 09c8 0E94 0000 		call _Z18i2cWaitForCompletev
 2154               	.LBB552:
 2155               	.LBB553:
 2156               	.LM464:
 2157 09cc F801      		movw r30,r16
 2158 09ce 9082      		st Z,r9
 2159               	.LBE553:
 2160               	.LBE552:
 2161               	.LBB554:
 2162               	.LBB555:
 2163               	.LM465:
 2164 09d0 519A      		sbi 42-32,1
 2165               	.LM466:
 2166 09d2 D082      		st Z,r13
 2167               	.LBE555:
 2168               	.LBE554:
 2169               	.LM467:
 2170 09d4 0E94 0000 		call _Z18i2cWaitForCompletev
 2171               	.LM468:
 2172 09d8 87EA      		ldi r24,lo8(-89)
 2173 09da 0E94 0000 		call _Z11i2cSendByteh
 2174               	.LM469:
 2175 09de 0E94 0000 		call _Z18i2cWaitForCompletev
 2176               	.LM470:
 2177 09e2 8FEF      		ldi r24,lo8(-1)
 2178 09e4 0E94 0000 		call _Z14i2cReceiveByteh
 2179               	.LM471:
 2180 09e8 0E94 0000 		call _Z18i2cWaitForCompletev
 2181               	.LBB556:
 2182               	.LBB557:
 2183               	.LM472:
 2184 09ec F701      		movw r30,r14
 2185 09ee 5080      		ld r5,Z
 2186               	.LVL92:
 2187               	.LBE557:
 2188               	.LBE556:
 2189               	.LM473:
 2190 09f0 0E94 0000 		call _Z18i2cWaitForCompletev
 2191               	.LM474:
 2192 09f4 80E0      		ldi r24,lo8(0)
 2193 09f6 0E94 0000 		call _Z14i2cReceiveByteh
 2194               	.LM475:
 2195 09fa 0E94 0000 		call _Z18i2cWaitForCompletev
 2196               	.LBB558:
 2197               	.LBB559:
 2198               	.LM476:
 2199 09fe F701      		movw r30,r14
 2200 0a00 8081      		ld r24,Z
 2201               	.LVL93:
 2202               	.LBE559:
 2203               	.LBE558:
 2204               	.LM477:
 2205 0a02 0E94 0000 		call _Z18i2cWaitForCompletev
 2206               	.LVL94:
 2207               	.LBB560:
 2208               	.LBB561:
 2209               	.LM478:
 2210 0a06 F801      		movw r30,r16
 2211 0a08 9082      		st Z,r9
 2212               	.LBE561:
 2213               	.LBE560:
 2214               	.LBB562:
 2215               	.LBB563:
 2216               	.LM479:
 2217 0a0a 519A      		sbi 42-32,1
 2218               	.LM480:
 2219 0a0c D082      		st Z,r13
 2220               	.LBE563:
 2221               	.LBE562:
 2222               	.LM481:
 2223 0a0e 0E94 0000 		call _Z18i2cWaitForCompletev
 2224               	.LM482:
 2225 0a12 86EA      		ldi r24,lo8(-90)
 2226 0a14 0E94 0000 		call _Z11i2cSendByteh
 2227               	.LM483:
 2228 0a18 0E94 0000 		call _Z18i2cWaitForCompletev
 2229               	.LM484:
 2230 0a1c 84E3      		ldi r24,lo8(52)
 2231 0a1e 0E94 0000 		call _Z11i2cSendByteh
 2232               	.LM485:
 2233 0a22 0E94 0000 		call _Z18i2cWaitForCompletev
 2234               	.LBB564:
 2235               	.LBB565:
 2236               	.LM486:
 2237 0a26 F801      		movw r30,r16
 2238 0a28 9082      		st Z,r9
 2239               	.LBE565:
 2240               	.LBE564:
 2241               	.LBB566:
 2242               	.LBB567:
 2243               	.LM487:
 2244 0a2a 519A      		sbi 42-32,1
 2245               	.LM488:
 2246 0a2c D082      		st Z,r13
 2247               	.LBE567:
 2248               	.LBE566:
 2249               	.LM489:
 2250 0a2e 0E94 0000 		call _Z18i2cWaitForCompletev
 2251               	.LM490:
 2252 0a32 87EA      		ldi r24,lo8(-89)
 2253 0a34 0E94 0000 		call _Z11i2cSendByteh
 2254               	.LM491:
 2255 0a38 0E94 0000 		call _Z18i2cWaitForCompletev
 2256               	.LM492:
 2257 0a3c 8FEF      		ldi r24,lo8(-1)
 2258 0a3e 0E94 0000 		call _Z14i2cReceiveByteh
 2259               	.LM493:
 2260 0a42 0E94 0000 		call _Z18i2cWaitForCompletev
 2261               	.LBB568:
 2262               	.LBB569:
 2263               	.LM494:
 2264 0a46 F701      		movw r30,r14
 2265 0a48 4080      		ld r4,Z
 2266               	.LVL95:
 2267               	.LBE569:
 2268               	.LBE568:
 2269               	.LM495:
 2270 0a4a 0E94 0000 		call _Z18i2cWaitForCompletev
 2271               	.LM496:
 2272 0a4e 80E0      		ldi r24,lo8(0)
 2273 0a50 0E94 0000 		call _Z14i2cReceiveByteh
 2274               	.LM497:
 2275 0a54 0E94 0000 		call _Z18i2cWaitForCompletev
 2276               	.LBB570:
 2277               	.LBB571:
 2278               	.LM498:
 2279 0a58 F701      		movw r30,r14
 2280 0a5a 8081      		ld r24,Z
 2281               	.LVL96:
 2282               	.LBE571:
 2283               	.LBE570:
 2284               	.LM499:
 2285 0a5c 0E94 0000 		call _Z18i2cWaitForCompletev
 2286               	.LVL97:
 2287               	.LBB572:
 2288               	.LBB573:
 2289               	.LM500:
 2290 0a60 F801      		movw r30,r16
 2291 0a62 9082      		st Z,r9
 2292               	.LBE573:
 2293               	.LBE572:
 2294               	.LBB574:
 2295               	.LBB575:
 2296               	.LM501:
 2297 0a64 519A      		sbi 42-32,1
 2298               	.LM502:
 2299 0a66 D082      		st Z,r13
 2300               	.LBE575:
 2301               	.LBE574:
 2302               	.LM503:
 2303 0a68 0E94 0000 		call _Z18i2cWaitForCompletev
 2304               	.LM504:
 2305 0a6c 86EA      		ldi r24,lo8(-90)
 2306 0a6e 0E94 0000 		call _Z11i2cSendByteh
 2307               	.LM505:
 2308 0a72 0E94 0000 		call _Z18i2cWaitForCompletev
 2309               	.LM506:
 2310 0a76 85E3      		ldi r24,lo8(53)
 2311 0a78 0E94 0000 		call _Z11i2cSendByteh
 2312               	.LM507:
 2313 0a7c 0E94 0000 		call _Z18i2cWaitForCompletev
 2314               	.LBB576:
 2315               	.LBB577:
 2316               	.LM508:
 2317 0a80 F801      		movw r30,r16
 2318 0a82 9082      		st Z,r9
 2319               	.LBE577:
 2320               	.LBE576:
 2321               	.LBB578:
 2322               	.LBB579:
 2323               	.LM509:
 2324 0a84 519A      		sbi 42-32,1
 2325               	.LM510:
 2326 0a86 D082      		st Z,r13
 2327               	.LBE579:
 2328               	.LBE578:
 2329               	.LM511:
 2330 0a88 0E94 0000 		call _Z18i2cWaitForCompletev
 2331               	.LM512:
 2332 0a8c 87EA      		ldi r24,lo8(-89)
 2333 0a8e 0E94 0000 		call _Z11i2cSendByteh
 2334               	.LM513:
 2335 0a92 0E94 0000 		call _Z18i2cWaitForCompletev
 2336               	.LM514:
 2337 0a96 8FEF      		ldi r24,lo8(-1)
 2338 0a98 0E94 0000 		call _Z14i2cReceiveByteh
 2339               	.LM515:
 2340 0a9c 0E94 0000 		call _Z18i2cWaitForCompletev
 2341               	.LBB580:
 2342               	.LBB581:
 2343               	.LM516:
 2344 0aa0 F701      		movw r30,r14
 2345 0aa2 7080      		ld r7,Z
 2346               	.LVL98:
 2347               	.LBE581:
 2348               	.LBE580:
 2349               	.LM517:
 2350 0aa4 0E94 0000 		call _Z18i2cWaitForCompletev
 2351               	.LM518:
 2352 0aa8 80E0      		ldi r24,lo8(0)
 2353 0aaa 0E94 0000 		call _Z14i2cReceiveByteh
 2354               	.LM519:
 2355 0aae 0E94 0000 		call _Z18i2cWaitForCompletev
 2356               	.LBB582:
 2357               	.LBB583:
 2358               	.LM520:
 2359 0ab2 F701      		movw r30,r14
 2360 0ab4 8081      		ld r24,Z
 2361               	.LVL99:
 2362               	.LBE583:
 2363               	.LBE582:
 2364               	.LM521:
 2365 0ab6 0E94 0000 		call _Z18i2cWaitForCompletev
 2366               	.LVL100:
 2367               	.LBB584:
 2368               	.LBB585:
 2369               	.LM522:
 2370 0aba F801      		movw r30,r16
 2371 0abc 9082      		st Z,r9
 2372               	.LBE585:
 2373               	.LBE584:
 2374               	.LBB586:
 2375               	.LBB587:
 2376               	.LM523:
 2377 0abe 519A      		sbi 42-32,1
 2378               	.LM524:
 2379 0ac0 D082      		st Z,r13
 2380               	.LBE587:
 2381               	.LBE586:
 2382               	.LM525:
 2383 0ac2 0E94 0000 		call _Z18i2cWaitForCompletev
 2384               	.LM526:
 2385 0ac6 86EA      		ldi r24,lo8(-90)
 2386 0ac8 0E94 0000 		call _Z11i2cSendByteh
 2387               	.LM527:
 2388 0acc 0E94 0000 		call _Z18i2cWaitForCompletev
 2389               	.LM528:
 2390 0ad0 86E3      		ldi r24,lo8(54)
 2391 0ad2 0E94 0000 		call _Z11i2cSendByteh
 2392               	.LM529:
 2393 0ad6 0E94 0000 		call _Z18i2cWaitForCompletev
 2394               	.LBB588:
 2395               	.LBB589:
 2396               	.LM530:
 2397 0ada F801      		movw r30,r16
 2398 0adc 9082      		st Z,r9
 2399               	.LBE589:
 2400               	.LBE588:
 2401               	.LBB590:
 2402               	.LBB591:
 2403               	.LM531:
 2404 0ade 519A      		sbi 42-32,1
 2405               	.LM532:
 2406 0ae0 D082      		st Z,r13
 2407               	.LBE591:
 2408               	.LBE590:
 2409               	.LM533:
 2410 0ae2 0E94 0000 		call _Z18i2cWaitForCompletev
 2411               	.LM534:
 2412 0ae6 87EA      		ldi r24,lo8(-89)
 2413 0ae8 0E94 0000 		call _Z11i2cSendByteh
 2414               	.LM535:
 2415 0aec 0E94 0000 		call _Z18i2cWaitForCompletev
 2416               	.LM536:
 2417 0af0 8FEF      		ldi r24,lo8(-1)
 2418 0af2 0E94 0000 		call _Z14i2cReceiveByteh
 2419               	.LM537:
 2420 0af6 0E94 0000 		call _Z18i2cWaitForCompletev
 2421               	.LBB592:
 2422               	.LBB593:
 2423               	.LM538:
 2424 0afa F701      		movw r30,r14
 2425 0afc 6080      		ld r6,Z
 2426               	.LVL101:
 2427               	.LBE593:
 2428               	.LBE592:
 2429               	.LM539:
 2430 0afe 0E94 0000 		call _Z18i2cWaitForCompletev
 2431               	.LM540:
 2432 0b02 80E0      		ldi r24,lo8(0)
 2433 0b04 0E94 0000 		call _Z14i2cReceiveByteh
 2434               	.LM541:
 2435 0b08 0E94 0000 		call _Z18i2cWaitForCompletev
 2436               	.LBB594:
 2437               	.LBB595:
 2438               	.LM542:
 2439 0b0c F701      		movw r30,r14
 2440 0b0e 8081      		ld r24,Z
 2441               	.LVL102:
 2442               	.LBE595:
 2443               	.LBE594:
 2444               	.LM543:
 2445 0b10 0E94 0000 		call _Z18i2cWaitForCompletev
 2446               	.LVL103:
 2447               	.LBB596:
 2448               	.LBB597:
 2449               	.LM544:
 2450 0b14 F801      		movw r30,r16
 2451 0b16 9082      		st Z,r9
 2452               	.LBE597:
 2453               	.LBE596:
 2454               	.LBB598:
 2455               	.LBB599:
 2456               	.LM545:
 2457 0b18 519A      		sbi 42-32,1
 2458               	.LM546:
 2459 0b1a D082      		st Z,r13
 2460               	.LBE599:
 2461               	.LBE598:
 2462               	.LM547:
 2463 0b1c 0E94 0000 		call _Z18i2cWaitForCompletev
 2464               	.LM548:
 2465 0b20 86EA      		ldi r24,lo8(-90)
 2466 0b22 0E94 0000 		call _Z11i2cSendByteh
 2467               	.LM549:
 2468 0b26 0E94 0000 		call _Z18i2cWaitForCompletev
 2469               	.LM550:
 2470 0b2a 87E3      		ldi r24,lo8(55)
 2471 0b2c 0E94 0000 		call _Z11i2cSendByteh
 2472               	.LM551:
 2473 0b30 0E94 0000 		call _Z18i2cWaitForCompletev
 2474               	.LBB600:
 2475               	.LBB601:
 2476               	.LM552:
 2477 0b34 F801      		movw r30,r16
 2478 0b36 9082      		st Z,r9
 2479               	.LBE601:
 2480               	.LBE600:
 2481               	.LBB602:
 2482               	.LBB603:
 2483               	.LM553:
 2484 0b38 519A      		sbi 42-32,1
 2485               	.LM554:
 2486 0b3a D082      		st Z,r13
 2487               	.LBE603:
 2488               	.LBE602:
 2489               	.LM555:
 2490 0b3c 0E94 0000 		call _Z18i2cWaitForCompletev
 2491               	.LM556:
 2492 0b40 87EA      		ldi r24,lo8(-89)
 2493 0b42 0E94 0000 		call _Z11i2cSendByteh
 2494               	.LM557:
 2495 0b46 0E94 0000 		call _Z18i2cWaitForCompletev
 2496               	.LM558:
 2497 0b4a 8FEF      		ldi r24,lo8(-1)
 2498 0b4c 0E94 0000 		call _Z14i2cReceiveByteh
 2499               	.LM559:
 2500 0b50 0E94 0000 		call _Z18i2cWaitForCompletev
 2501               	.LBB604:
 2502               	.LBB605:
 2503               	.LM560:
 2504 0b54 F701      		movw r30,r14
 2505 0b56 B080      		ld r11,Z
 2506               	.LVL104:
 2507               	.LBE605:
 2508               	.LBE604:
 2509               	.LM561:
 2510 0b58 0E94 0000 		call _Z18i2cWaitForCompletev
 2511               	.LM562:
 2512 0b5c 80E0      		ldi r24,lo8(0)
 2513 0b5e 0E94 0000 		call _Z14i2cReceiveByteh
 2514               	.LM563:
 2515 0b62 0E94 0000 		call _Z18i2cWaitForCompletev
 2516               	.LBB606:
 2517               	.LBB607:
 2518               	.LM564:
 2519 0b66 F701      		movw r30,r14
 2520 0b68 8081      		ld r24,Z
 2521               	.LVL105:
 2522               	.LBE607:
 2523               	.LBE606:
 2524               	.LM565:
 2525 0b6a 0E94 0000 		call _Z18i2cWaitForCompletev
 2526               	.LVL106:
 2527               	.LBB608:
 2528               	.LBB609:
 2529               	.LM566:
 2530 0b6e F801      		movw r30,r16
 2531 0b70 9082      		st Z,r9
 2532               	.LBE609:
 2533               	.LBE608:
 2534               	.LM567:
 2535 0b72 0E94 0000 		call _Z17magnetometer_initv
 2536               	.LBB610:
 2537               	.LBB611:
 2538               	.LM568:
 2539 0b76 519A      		sbi 42-32,1
 2540               	.LM569:
 2541 0b78 F801      		movw r30,r16
 2542 0b7a D082      		st Z,r13
 2543               	.LBE611:
 2544               	.LBE610:
 2545               	.LM570:
 2546 0b7c 0E94 0000 		call _Z18i2cWaitForCompletev
 2547               	.LM571:
 2548 0b80 8DE3      		ldi r24,lo8(61)
 2549 0b82 0E94 0000 		call _Z11i2cSendByteh
 2550               	.LM572:
 2551 0b86 0E94 0000 		call _Z18i2cWaitForCompletev
 2552               	.LM573:
 2553 0b8a 8FEF      		ldi r24,lo8(-1)
 2554 0b8c 0E94 0000 		call _Z14i2cReceiveByteh
 2555               	.LM574:
 2556 0b90 0E94 0000 		call _Z18i2cWaitForCompletev
 2557               	.LBB612:
 2558               	.LBB613:
 2559               	.LM575:
 2560 0b94 F701      		movw r30,r14
 2561 0b96 D080      		ld r13,Z
 2562               	.LVL107:
 2563               	.LBE613:
 2564               	.LBE612:
 2565               	.LM576:
 2566 0b98 0E94 0000 		call _Z18i2cWaitForCompletev
 2567               	.LM577:
 2568 0b9c 8FEF      		ldi r24,lo8(-1)
 2569 0b9e 0E94 0000 		call _Z14i2cReceiveByteh
 2570               	.LM578:
 2571 0ba2 0E94 0000 		call _Z18i2cWaitForCompletev
 2572               	.LBB614:
 2573               	.LBB615:
 2574               	.LM579:
 2575 0ba6 F701      		movw r30,r14
 2576 0ba8 C080      		ld r12,Z
 2577               	.LVL108:
 2578               	.LBE615:
 2579               	.LBE614:
 2580               	.LM580:
 2581 0baa 0E94 0000 		call _Z18i2cWaitForCompletev
 2582               	.LM581:
 2583 0bae 8FEF      		ldi r24,lo8(-1)
 2584 0bb0 0E94 0000 		call _Z14i2cReceiveByteh
 2585               	.LM582:
 2586 0bb4 0E94 0000 		call _Z18i2cWaitForCompletev
 2587               	.LBB616:
 2588               	.LBB617:
 2589               	.LM583:
 2590 0bb8 F701      		movw r30,r14
 2591 0bba F081      		ld r31,Z
 2592 0bbc F983      		std Y+1,r31
 2593               	.LVL109:
 2594               	.LBE617:
 2595               	.LBE616:
 2596               	.LM584:
 2597 0bbe 0E94 0000 		call _Z18i2cWaitForCompletev
 2598               	.LM585:
 2599 0bc2 8FEF      		ldi r24,lo8(-1)
 2600 0bc4 0E94 0000 		call _Z14i2cReceiveByteh
 2601               	.LM586:
 2602 0bc8 0E94 0000 		call _Z18i2cWaitForCompletev
 2603               	.LBB618:
 2604               	.LBB619:
 2605               	.LM587:
 2606 0bcc F701      		movw r30,r14
 2607 0bce A080      		ld r10,Z
 2608               	.LVL110:
 2609               	.LBE619:
 2610               	.LBE618:
 2611               	.LM588:
 2612 0bd0 0E94 0000 		call _Z18i2cWaitForCompletev
 2613               	.LM589:
 2614 0bd4 8FEF      		ldi r24,lo8(-1)
 2615 0bd6 0E94 0000 		call _Z14i2cReceiveByteh
 2616               	.LM590:
 2617 0bda 0E94 0000 		call _Z18i2cWaitForCompletev
 2618               	.LBB620:
 2619               	.LBB621:
 2620               	.LM591:
 2621 0bde F701      		movw r30,r14
 2622 0be0 8080      		ld r8,Z
 2623               	.LVL111:
 2624               	.LBE621:
 2625               	.LBE620:
 2626               	.LM592:
 2627 0be2 0E94 0000 		call _Z18i2cWaitForCompletev
 2628               	.LM593:
 2629 0be6 8FEF      		ldi r24,lo8(-1)
 2630 0be8 0E94 0000 		call _Z14i2cReceiveByteh
 2631               	.LM594:
 2632 0bec 0E94 0000 		call _Z18i2cWaitForCompletev
 2633               	.LBB622:
 2634               	.LBB623:
 2635               	.LM595:
 2636 0bf0 F701      		movw r30,r14
 2637 0bf2 E080      		ld r14,Z
 2638               	.LVL112:
 2639               	.LBE623:
 2640               	.LBE622:
 2641               	.LM596:
 2642 0bf4 0E94 0000 		call _Z18i2cWaitForCompletev
 2643               	.LM597:
 2644 0bf8 8DE3      		ldi r24,lo8(61)
 2645 0bfa 0E94 0000 		call _Z11i2cSendByteh
 2646               	.LM598:
 2647 0bfe 0E94 0000 		call _Z18i2cWaitForCompletev
 2648               	.LBB624:
 2649               	.LBB625:
 2650               	.LM599:
 2651 0c02 F801      		movw r30,r16
 2652 0c04 9082      		st Z,r9
 2653               	.LBE625:
 2654               	.LBE624:
 2655               	.LM600:
 2656 0c06 752D      		mov r23,r5
 2657               	.LVL113:
 2658 0c08 60E0      		ldi r22,lo8(0)
 2659               	.LVL114:
 2660 0c0a 3324      		clr r3
 2661               	.LVL115:
 2662 0c0c 6229      		or r22,r2
 2663 0c0e 7329      		or r23,r3
 2664               	.LVL116:
 2665 0c10 8827      		clr r24
 2666 0c12 77FD      		sbrc r23,7
 2667 0c14 8095      		com r24
 2668 0c16 982F      		mov r25,r24
 2669               	.LVL117:
 2670 0c18 0E94 0000 		call __floatsisf
 2671               	.LVL118:
 2672 0c1c EC81      		ldd r30,Y+4
 2673 0c1e FD81      		ldd r31,Y+5
 2674 0c20 6083      		st Z,r22
 2675 0c22 7183      		std Z+1,r23
 2676 0c24 8283      		std Z+2,r24
 2677 0c26 9383      		std Z+3,r25
 2678               	.LM601:
 2679 0c28 772D      		mov r23,r7
 2680               	.LVL119:
 2681 0c2a 60E0      		ldi r22,lo8(0)
 2682               	.LVL120:
 2683 0c2c 5524      		clr r5
 2684               	.LVL121:
 2685 0c2e 6429      		or r22,r4
 2686 0c30 7529      		or r23,r5
 2687               	.LVL122:
 2688 0c32 8827      		clr r24
 2689 0c34 77FD      		sbrc r23,7
 2690 0c36 8095      		com r24
 2691 0c38 982F      		mov r25,r24
 2692               	.LVL123:
 2693 0c3a 0E94 0000 		call __floatsisf
 2694               	.LVL124:
 2695 0c3e EC81      		ldd r30,Y+4
 2696 0c40 FD81      		ldd r31,Y+5
 2697 0c42 6483      		std Z+4,r22
 2698 0c44 7583      		std Z+5,r23
 2699 0c46 8683      		std Z+6,r24
 2700 0c48 9783      		std Z+7,r25
 2701               	.LM602:
 2702 0c4a 7B2D      		mov r23,r11
 2703               	.LVL125:
 2704 0c4c 60E0      		ldi r22,lo8(0)
 2705               	.LVL126:
 2706 0c4e 7724      		clr r7
 2707               	.LVL127:
 2708 0c50 6629      		or r22,r6
 2709 0c52 7729      		or r23,r7
 2710               	.LVL128:
 2711 0c54 8827      		clr r24
 2712 0c56 77FD      		sbrc r23,7
 2713 0c58 8095      		com r24
 2714 0c5a 982F      		mov r25,r24
 2715               	.LVL129:
 2716 0c5c 0E94 0000 		call __floatsisf
 2717               	.LVL130:
 2718 0c60 EC81      		ldd r30,Y+4
 2719 0c62 FD81      		ldd r31,Y+5
 2720 0c64 6087      		std Z+8,r22
 2721 0c66 7187      		std Z+9,r23
 2722 0c68 8287      		std Z+10,r24
 2723 0c6a 9387      		std Z+11,r25
 2724               	.LM603:
 2725 0c6c 7D2D      		mov r23,r13
 2726               	.LVL131:
 2727 0c6e 60E0      		ldi r22,lo8(0)
 2728               	.LVL132:
 2729 0c70 DD24      		clr r13
 2730               	.LVL133:
 2731 0c72 6C29      		or r22,r12
 2732 0c74 7D29      		or r23,r13
 2733               	.LVL134:
 2734 0c76 8827      		clr r24
 2735 0c78 77FD      		sbrc r23,7
 2736 0c7a 8095      		com r24
 2737 0c7c 982F      		mov r25,r24
 2738               	.LVL135:
 2739 0c7e 0E94 0000 		call __floatsisf
 2740               	.LVL136:
 2741 0c82 EA81      		ldd r30,Y+2
 2742 0c84 FB81      		ldd r31,Y+3
 2743 0c86 6083      		st Z,r22
 2744 0c88 7183      		std Z+1,r23
 2745 0c8a 8283      		std Z+2,r24
 2746 0c8c 9383      		std Z+3,r25
 2747               	.LM604:
 2748 0c8e 782D      		mov r23,r8
 2749               	.LVL137:
 2750 0c90 60E0      		ldi r22,lo8(0)
 2751               	.LVL138:
 2752 0c92 FF24      		clr r15
 2753               	.LVL139:
 2754 0c94 6E29      		or r22,r14
 2755 0c96 7F29      		or r23,r15
 2756               	.LVL140:
 2757 0c98 8827      		clr r24
 2758 0c9a 77FD      		sbrc r23,7
 2759 0c9c 8095      		com r24
 2760 0c9e 982F      		mov r25,r24
 2761               	.LVL141:
 2762 0ca0 0E94 0000 		call __floatsisf
 2763               	.LVL142:
 2764 0ca4 EA81      		ldd r30,Y+2
 2765 0ca6 FB81      		ldd r31,Y+3
 2766 0ca8 6483      		std Z+4,r22
 2767 0caa 7583      		std Z+5,r23
 2768 0cac 8683      		std Z+6,r24
 2769 0cae 9783      		std Z+7,r25
 2770               	.LM605:
 2771 0cb0 7981      		ldd r23,Y+1
 2772               	.LVL143:
 2773 0cb2 60E0      		ldi r22,lo8(0)
 2774               	.LVL144:
 2775 0cb4 BB24      		clr r11
 2776               	.LVL145:
 2777 0cb6 6A29      		or r22,r10
 2778 0cb8 7B29      		or r23,r11
 2779               	.LVL146:
 2780 0cba 8827      		clr r24
 2781 0cbc 77FD      		sbrc r23,7
 2782 0cbe 8095      		com r24
 2783 0cc0 982F      		mov r25,r24
 2784               	.LVL147:
 2785 0cc2 0E94 0000 		call __floatsisf
 2786               	.LVL148:
 2787 0cc6 EA81      		ldd r30,Y+2
 2788 0cc8 FB81      		ldd r31,Y+3
 2789 0cca 6087      		std Z+8,r22
 2790 0ccc 7187      		std Z+9,r23
 2791 0cce 8287      		std Z+10,r24
 2792 0cd0 9387      		std Z+11,r25
 2793               	/* epilogue start */
 2794               	.LBE537:
 2795               	.LM606:
 2796 0cd2 0F90      		pop __tmp_reg__
 2797 0cd4 0F90      		pop __tmp_reg__
 2798 0cd6 0F90      		pop __tmp_reg__
 2799 0cd8 0F90      		pop __tmp_reg__
 2800 0cda 0F90      		pop __tmp_reg__
 2801 0cdc CF91      		pop r28
 2802 0cde DF91      		pop r29
 2803 0ce0 1F91      		pop r17
 2804 0ce2 0F91      		pop r16
 2805 0ce4 FF90      		pop r15
 2806               	.LVL149:
 2807 0ce6 EF90      		pop r14
 2808               	.LVL150:
 2809 0ce8 DF90      		pop r13
 2810               	.LVL151:
 2811 0cea CF90      		pop r12
 2812               	.LVL152:
 2813 0cec BF90      		pop r11
 2814               	.LVL153:
 2815 0cee AF90      		pop r10
 2816               	.LVL154:
 2817 0cf0 9F90      		pop r9
 2818 0cf2 8F90      		pop r8
 2819 0cf4 7F90      		pop r7
 2820               	.LVL155:
 2821 0cf6 6F90      		pop r6
 2822               	.LVL156:
 2823 0cf8 5F90      		pop r5
 2824               	.LVL157:
 2825 0cfa 4F90      		pop r4
 2826               	.LVL158:
 2827 0cfc 3F90      		pop r3
 2828               	.LVL159:
 2829 0cfe 2F90      		pop r2
 2830               	.LVL160:
 2831 0d00 0895      		ret
 2832               	.LFE131:
 2834               	.global	_Z19compass_calibrationv
 2836               	_Z19compass_calibrationv:
 2837               	.LFB132:
 2838               	.LM607:
 2839 0d02 6F92      		push r6
 2840 0d04 7F92      		push r7
 2841 0d06 8F92      		push r8
 2842 0d08 9F92      		push r9
 2843 0d0a AF92      		push r10
 2844 0d0c BF92      		push r11
 2845 0d0e CF92      		push r12
 2846 0d10 DF92      		push r13
 2847 0d12 EF92      		push r14
 2848 0d14 FF92      		push r15
 2849 0d16 0F93      		push r16
 2850 0d18 1F93      		push r17
 2851 0d1a DF93      		push r29
 2852 0d1c CF93      		push r28
 2853 0d1e CDB7      		in r28,__SP_L__
 2854 0d20 DEB7      		in r29,__SP_H__
 2855 0d22 6897      		sbiw r28,24
 2856 0d24 0FB6      		in __tmp_reg__,__SREG__
 2857 0d26 F894      		cli
 2858 0d28 DEBF      		out __SP_H__,r29
 2859 0d2a 0FBE      		out __SREG__,__tmp_reg__
 2860 0d2c CDBF      		out __SP_L__,r28
 2861               	/* prologue: function */
 2862               	/* frame size = 24 */
 2863               	.LBB626:
 2864               	.LM608:
 2865 0d2e DE01      		movw r26,r28
 2866 0d30 1196      		adiw r26,1
 2867 0d32 E0E0      		ldi r30,lo8(_ZZ19compass_calibrationvE4C.77)
 2868 0d34 F0E0      		ldi r31,hi8(_ZZ19compass_calibrationvE4C.77)
 2869 0d36 8CE0      		ldi r24,lo8(12)
 2870               	.L56:
 2871 0d38 0190      		ld r0,Z+
 2872 0d3a 0D92      		st X+,r0
 2873 0d3c 8150      		subi r24,lo8(-(-1))
 2874 0d3e 01F4      		brne .L56
 2875               	.LM609:
 2876 0d40 DE01      		movw r26,r28
 2877 0d42 1D96      		adiw r26,13
 2878 0d44 E0E0      		ldi r30,lo8(_ZZ19compass_calibrationvE4C.78)
 2879 0d46 F0E0      		ldi r31,hi8(_ZZ19compass_calibrationvE4C.78)
 2880 0d48 8CE0      		ldi r24,lo8(12)
 2881               	.L57:
 2882 0d4a 0190      		ld r0,Z+
 2883 0d4c 0D92      		st X+,r0
 2884 0d4e 8150      		subi r24,lo8(-(-1))
 2885 0d50 01F4      		brne .L57
 2886 0d52 AA24      		clr r10
 2887 0d54 BB24      		clr r11
 2888 0d56 CC24      		clr r12
 2889 0d58 DD24      		clr r13
 2890               	.LM610:
 2891 0d5a EDE0      		ldi r30,lo8(13)
 2892 0d5c 6E2E      		mov r6,r30
 2893 0d5e 712C      		mov r7,__zero_reg__
 2894 0d60 6C0E      		add r6,r28
 2895 0d62 7D1E      		adc r7,r29
 2896 0d64 4E01      		movw r8,r28
 2897 0d66 0894      		sec
 2898 0d68 811C      		adc r8,__zero_reg__
 2899 0d6a 911C      		adc r9,__zero_reg__
 2900 0d6c 00C0      		rjmp .L58
 2901               	.L65:
 2902               	.LM611:
 2903 0d6e 7501      		movw r14,r10
 2904 0d70 8601      		movw r16,r12
 2905               	.L59:
 2906 0d72 5701      		movw r10,r14
 2907 0d74 6801      		movw r12,r16
 2908               	.L58:
 2909               	.LM612:
 2910 0d76 C401      		movw r24,r8
 2911 0d78 B301      		movw r22,r6
 2912 0d7a 0E94 0000 		call _Z17compass_read_dataP6vectorS0_
 2913               	.LM613:
 2914 0d7e ED88      		ldd r14,Y+21
 2915 0d80 FE88      		ldd r15,Y+22
 2916 0d82 0F89      		ldd r16,Y+23
 2917 0d84 188D      		ldd r17,Y+24
 2918               	.LM614:
 2919 0d86 B701      		movw r22,r14
 2920 0d88 C801      		movw r24,r16
 2921 0d8a 9501      		movw r18,r10
 2922 0d8c A601      		movw r20,r12
 2923 0d8e 0E94 0000 		call __gtsf2
 2924 0d92 1816      		cp __zero_reg__,r24
 2925 0d94 04F0      		brlt .L59
 2926 0d96 00C0      		rjmp .L65
 2927               	.LBE626:
 2928               	.LFE132:
 2930               	.global	_Z11gyro_configv
 2932               	_Z11gyro_configv:
 2933               	.LFB134:
 2934               	.LM615:
 2935               	/* prologue: function */
 2936               	/* frame size = 0 */
 2937               	.LM616:
 2938 0d98 0E94 0000 		call _Z9gyro_initv
 2939               	/* epilogue start */
 2940               	.LM617:
 2941 0d9c 0895      		ret
 2942               	.LFE134:
 2944               	.global	_Z14gyro_read_dataP6vector
 2946               	_Z14gyro_read_dataP6vector:
 2947               	.LFB135:
 2948               	.LM618:
 2949               	.LVL161:
 2950 0d9e 2F92      		push r2
 2951 0da0 3F92      		push r3
 2952 0da2 4F92      		push r4
 2953 0da4 5F92      		push r5
 2954 0da6 6F92      		push r6
 2955 0da8 7F92      		push r7
 2956 0daa 8F92      		push r8
 2957 0dac 9F92      		push r9
 2958 0dae AF92      		push r10
 2959 0db0 BF92      		push r11
 2960 0db2 CF92      		push r12
 2961 0db4 DF92      		push r13
 2962 0db6 EF92      		push r14
 2963 0db8 FF92      		push r15
 2964 0dba 0F93      		push r16
 2965 0dbc 1F93      		push r17
 2966               	/* prologue: function */
 2967               	/* frame size = 0 */
 2968 0dbe 2C01      		movw r4,r24
 2969               	.LBB627:
 2970               	.LM619:
 2971 0dc0 0CEB      		ldi r16,lo8(188)
 2972 0dc2 10E0      		ldi r17,hi8(188)
 2973 0dc4 F801      		movw r30,r16
 2974 0dc6 8081      		ld r24,Z
 2975               	.LVL162:
 2976 0dc8 8B7F      		andi r24,lo8(-5)
 2977 0dca 8083      		st Z,r24
 2978               	.LM620:
 2979 0dcc 8081      		ld r24,Z
 2980 0dce 8460      		ori r24,lo8(4)
 2981 0dd0 8083      		st Z,r24
 2982               	.LBB628:
 2983               	.LBB629:
 2984               	.LM621:
 2985 0dd2 519A      		sbi 42-32,1
 2986               	.LM622:
 2987 0dd4 B4EA      		ldi r27,lo8(-92)
 2988 0dd6 FB2E      		mov r15,r27
 2989 0dd8 F082      		st Z,r15
 2990               	.LBE629:
 2991               	.LBE628:
 2992               	.LM623:
 2993 0dda 0E94 0000 		call _Z18i2cWaitForCompletev
 2994               	.LM624:
 2995 0dde 80ED      		ldi r24,lo8(-48)
 2996 0de0 0E94 0000 		call _Z11i2cSendByteh
 2997               	.LM625:
 2998 0de4 0E94 0000 		call _Z18i2cWaitForCompletev
 2999               	.LM626:
 3000 0de8 8DE1      		ldi r24,lo8(29)
 3001 0dea 0E94 0000 		call _Z11i2cSendByteh
 3002               	.LM627:
 3003 0dee 0E94 0000 		call _Z18i2cWaitForCompletev
 3004               	.LBB630:
 3005               	.LBB631:
 3006               	.LM628:
 3007 0df2 519A      		sbi 42-32,1
 3008               	.LM629:
 3009 0df4 F801      		movw r30,r16
 3010 0df6 F082      		st Z,r15
 3011               	.LBE631:
 3012               	.LBE630:
 3013               	.LM630:
 3014 0df8 81ED      		ldi r24,lo8(-47)
 3015 0dfa 0E94 0000 		call _Z11i2cSendByteh
 3016               	.LM631:
 3017 0dfe 0E94 0000 		call _Z18i2cWaitForCompletev
 3018               	.LM632:
 3019 0e02 80E0      		ldi r24,lo8(0)
 3020 0e04 0E94 0000 		call _Z14i2cReceiveByteh
 3021               	.LM633:
 3022 0e08 0E94 0000 		call _Z18i2cWaitForCompletev
 3023               	.LBB632:
 3024               	.LBB633:
 3025               	.LM634:
 3026 0e0c ABEB      		ldi r26,lo8(187)
 3027 0e0e AA2E      		mov r10,r26
 3028 0e10 B12C      		mov r11,__zero_reg__
 3029 0e12 F501      		movw r30,r10
 3030 0e14 6080      		ld r6,Z
 3031               	.LVL163:
 3032               	.LBE633:
 3033               	.LBE632:
 3034               	.LM635:
 3035 0e16 0E94 0000 		call _Z18i2cWaitForCompletev
 3036               	.LBB634:
 3037               	.LBB635:
 3038               	.LM636:
 3039 0e1a F4E9      		ldi r31,lo8(-108)
 3040 0e1c 7F2E      		mov r7,r31
 3041 0e1e F801      		movw r30,r16
 3042 0e20 7082      		st Z,r7
 3043               	.LBE635:
 3044               	.LBE634:
 3045               	.LM637:
 3046 0e22 8081      		ld r24,Z
 3047 0e24 8B7F      		andi r24,lo8(-5)
 3048 0e26 8083      		st Z,r24
 3049               	.LM638:
 3050 0e28 8081      		ld r24,Z
 3051 0e2a 8460      		ori r24,lo8(4)
 3052 0e2c 8083      		st Z,r24
 3053               	.LBB636:
 3054               	.LBB637:
 3055               	.LM639:
 3056 0e2e 519A      		sbi 42-32,1
 3057               	.LM640:
 3058 0e30 F082      		st Z,r15
 3059               	.LBE637:
 3060               	.LBE636:
 3061               	.LM641:
 3062 0e32 0E94 0000 		call _Z18i2cWaitForCompletev
 3063               	.LM642:
 3064 0e36 80ED      		ldi r24,lo8(-48)
 3065 0e38 0E94 0000 		call _Z11i2cSendByteh
 3066               	.LM643:
 3067 0e3c 0E94 0000 		call _Z18i2cWaitForCompletev
 3068               	.LM644:
 3069 0e40 8EE1      		ldi r24,lo8(30)
 3070 0e42 0E94 0000 		call _Z11i2cSendByteh
 3071               	.LM645:
 3072 0e46 0E94 0000 		call _Z18i2cWaitForCompletev
 3073               	.LBB638:
 3074               	.LBB639:
 3075               	.LM646:
 3076 0e4a 519A      		sbi 42-32,1
 3077               	.LM647:
 3078 0e4c F801      		movw r30,r16
 3079 0e4e F082      		st Z,r15
 3080               	.LBE639:
 3081               	.LBE638:
 3082               	.LM648:
 3083 0e50 81ED      		ldi r24,lo8(-47)
 3084 0e52 0E94 0000 		call _Z11i2cSendByteh
 3085               	.LM649:
 3086 0e56 0E94 0000 		call _Z18i2cWaitForCompletev
 3087               	.LM650:
 3088 0e5a 80E0      		ldi r24,lo8(0)
 3089 0e5c 0E94 0000 		call _Z14i2cReceiveByteh
 3090               	.LM651:
 3091 0e60 0E94 0000 		call _Z18i2cWaitForCompletev
 3092               	.LBB640:
 3093               	.LBB641:
 3094               	.LM652:
 3095 0e64 F501      		movw r30,r10
 3096 0e66 8080      		ld r8,Z
 3097               	.LVL164:
 3098               	.LBE641:
 3099               	.LBE640:
 3100               	.LM653:
 3101 0e68 0E94 0000 		call _Z18i2cWaitForCompletev
 3102               	.LBB642:
 3103               	.LBB643:
 3104               	.LM654:
 3105 0e6c F801      		movw r30,r16
 3106 0e6e 7082      		st Z,r7
 3107               	.LBE643:
 3108               	.LBE642:
 3109               	.LM655:
 3110 0e70 8081      		ld r24,Z
 3111 0e72 8B7F      		andi r24,lo8(-5)
 3112 0e74 8083      		st Z,r24
 3113               	.LM656:
 3114 0e76 8081      		ld r24,Z
 3115 0e78 8460      		ori r24,lo8(4)
 3116 0e7a 8083      		st Z,r24
 3117               	.LBB644:
 3118               	.LBB645:
 3119               	.LM657:
 3120 0e7c 519A      		sbi 42-32,1
 3121               	.LM658:
 3122 0e7e F082      		st Z,r15
 3123               	.LBE645:
 3124               	.LBE644:
 3125               	.LM659:
 3126 0e80 0E94 0000 		call _Z18i2cWaitForCompletev
 3127               	.LM660:
 3128 0e84 80ED      		ldi r24,lo8(-48)
 3129 0e86 0E94 0000 		call _Z11i2cSendByteh
 3130               	.LM661:
 3131 0e8a 0E94 0000 		call _Z18i2cWaitForCompletev
 3132               	.LM662:
 3133 0e8e 8FE1      		ldi r24,lo8(31)
 3134 0e90 0E94 0000 		call _Z11i2cSendByteh
 3135               	.LM663:
 3136 0e94 0E94 0000 		call _Z18i2cWaitForCompletev
 3137               	.LBB646:
 3138               	.LBB647:
 3139               	.LM664:
 3140 0e98 519A      		sbi 42-32,1
 3141               	.LM665:
 3142 0e9a F801      		movw r30,r16
 3143 0e9c F082      		st Z,r15
 3144               	.LBE647:
 3145               	.LBE646:
 3146               	.LM666:
 3147 0e9e 81ED      		ldi r24,lo8(-47)
 3148 0ea0 0E94 0000 		call _Z11i2cSendByteh
 3149               	.LM667:
 3150 0ea4 0E94 0000 		call _Z18i2cWaitForCompletev
 3151               	.LM668:
 3152 0ea8 80E0      		ldi r24,lo8(0)
 3153 0eaa 0E94 0000 		call _Z14i2cReceiveByteh
 3154               	.LM669:
 3155 0eae 0E94 0000 		call _Z18i2cWaitForCompletev
 3156               	.LBB648:
 3157               	.LBB649:
 3158               	.LM670:
 3159 0eb2 F501      		movw r30,r10
 3160 0eb4 2080      		ld r2,Z
 3161               	.LVL165:
 3162               	.LBE649:
 3163               	.LBE648:
 3164               	.LM671:
 3165 0eb6 0E94 0000 		call _Z18i2cWaitForCompletev
 3166               	.LBB650:
 3167               	.LBB651:
 3168               	.LM672:
 3169 0eba F801      		movw r30,r16
 3170 0ebc 7082      		st Z,r7
 3171               	.LBE651:
 3172               	.LBE650:
 3173               	.LM673:
 3174 0ebe 8081      		ld r24,Z
 3175 0ec0 8B7F      		andi r24,lo8(-5)
 3176 0ec2 8083      		st Z,r24
 3177               	.LM674:
 3178 0ec4 8081      		ld r24,Z
 3179 0ec6 8460      		ori r24,lo8(4)
 3180 0ec8 8083      		st Z,r24
 3181               	.LBB652:
 3182               	.LBB653:
 3183               	.LM675:
 3184 0eca 519A      		sbi 42-32,1
 3185               	.LM676:
 3186 0ecc F082      		st Z,r15
 3187               	.LBE653:
 3188               	.LBE652:
 3189               	.LM677:
 3190 0ece 0E94 0000 		call _Z18i2cWaitForCompletev
 3191               	.LM678:
 3192 0ed2 80ED      		ldi r24,lo8(-48)
 3193 0ed4 0E94 0000 		call _Z11i2cSendByteh
 3194               	.LM679:
 3195 0ed8 0E94 0000 		call _Z18i2cWaitForCompletev
 3196               	.LM680:
 3197 0edc 80E2      		ldi r24,lo8(32)
 3198 0ede 0E94 0000 		call _Z11i2cSendByteh
 3199               	.LM681:
 3200 0ee2 0E94 0000 		call _Z18i2cWaitForCompletev
 3201               	.LBB654:
 3202               	.LBB655:
 3203               	.LM682:
 3204 0ee6 519A      		sbi 42-32,1
 3205               	.LM683:
 3206 0ee8 F801      		movw r30,r16
 3207 0eea F082      		st Z,r15
 3208               	.LBE655:
 3209               	.LBE654:
 3210               	.LM684:
 3211 0eec 81ED      		ldi r24,lo8(-47)
 3212 0eee 0E94 0000 		call _Z11i2cSendByteh
 3213               	.LM685:
 3214 0ef2 0E94 0000 		call _Z18i2cWaitForCompletev
 3215               	.LM686:
 3216 0ef6 80E0      		ldi r24,lo8(0)
 3217 0ef8 0E94 0000 		call _Z14i2cReceiveByteh
 3218               	.LM687:
 3219 0efc 0E94 0000 		call _Z18i2cWaitForCompletev
 3220               	.LBB656:
 3221               	.LBB657:
 3222               	.LM688:
 3223 0f00 F501      		movw r30,r10
 3224 0f02 C080      		ld r12,Z
 3225               	.LVL166:
 3226               	.LBE657:
 3227               	.LBE656:
 3228               	.LM689:
 3229 0f04 0E94 0000 		call _Z18i2cWaitForCompletev
 3230               	.LBB658:
 3231               	.LBB659:
 3232               	.LM690:
 3233 0f08 F801      		movw r30,r16
 3234 0f0a 7082      		st Z,r7
 3235               	.LBE659:
 3236               	.LBE658:
 3237               	.LM691:
 3238 0f0c 8081      		ld r24,Z
 3239 0f0e 8B7F      		andi r24,lo8(-5)
 3240 0f10 8083      		st Z,r24
 3241               	.LM692:
 3242 0f12 8081      		ld r24,Z
 3243 0f14 8460      		ori r24,lo8(4)
 3244 0f16 8083      		st Z,r24
 3245               	.LBB660:
 3246               	.LBB661:
 3247               	.LM693:
 3248 0f18 519A      		sbi 42-32,1
 3249               	.LM694:
 3250 0f1a F082      		st Z,r15
 3251               	.LBE661:
 3252               	.LBE660:
 3253               	.LM695:
 3254 0f1c 0E94 0000 		call _Z18i2cWaitForCompletev
 3255               	.LM696:
 3256 0f20 80ED      		ldi r24,lo8(-48)
 3257 0f22 0E94 0000 		call _Z11i2cSendByteh
 3258               	.LM697:
 3259 0f26 0E94 0000 		call _Z18i2cWaitForCompletev
 3260               	.LM698:
 3261 0f2a 81E2      		ldi r24,lo8(33)
 3262 0f2c 0E94 0000 		call _Z11i2cSendByteh
 3263               	.LM699:
 3264 0f30 0E94 0000 		call _Z18i2cWaitForCompletev
 3265               	.LBB662:
 3266               	.LBB663:
 3267               	.LM700:
 3268 0f34 519A      		sbi 42-32,1
 3269               	.LM701:
 3270 0f36 F801      		movw r30,r16
 3271 0f38 F082      		st Z,r15
 3272               	.LBE663:
 3273               	.LBE662:
 3274               	.LM702:
 3275 0f3a 81ED      		ldi r24,lo8(-47)
 3276 0f3c 0E94 0000 		call _Z11i2cSendByteh
 3277               	.LM703:
 3278 0f40 0E94 0000 		call _Z18i2cWaitForCompletev
 3279               	.LM704:
 3280 0f44 80E0      		ldi r24,lo8(0)
 3281 0f46 0E94 0000 		call _Z14i2cReceiveByteh
 3282               	.LM705:
 3283 0f4a 0E94 0000 		call _Z18i2cWaitForCompletev
 3284               	.LBB664:
 3285               	.LBB665:
 3286               	.LM706:
 3287 0f4e F501      		movw r30,r10
 3288 0f50 3080      		ld r3,Z
 3289               	.LVL167:
 3290               	.LBE665:
 3291               	.LBE664:
 3292               	.LM707:
 3293 0f52 0E94 0000 		call _Z18i2cWaitForCompletev
 3294               	.LBB666:
 3295               	.LBB667:
 3296               	.LM708:
 3297 0f56 F801      		movw r30,r16
 3298 0f58 7082      		st Z,r7
 3299               	.LBE667:
 3300               	.LBE666:
 3301               	.LM709:
 3302 0f5a 8081      		ld r24,Z
 3303 0f5c 8B7F      		andi r24,lo8(-5)
 3304 0f5e 8083      		st Z,r24
 3305               	.LM710:
 3306 0f60 8081      		ld r24,Z
 3307 0f62 8460      		ori r24,lo8(4)
 3308 0f64 8083      		st Z,r24
 3309               	.LBB668:
 3310               	.LBB669:
 3311               	.LM711:
 3312 0f66 519A      		sbi 42-32,1
 3313               	.LM712:
 3314 0f68 F082      		st Z,r15
 3315               	.LBE669:
 3316               	.LBE668:
 3317               	.LM713:
 3318 0f6a 0E94 0000 		call _Z18i2cWaitForCompletev
 3319               	.LM714:
 3320 0f6e 80ED      		ldi r24,lo8(-48)
 3321 0f70 0E94 0000 		call _Z11i2cSendByteh
 3322               	.LM715:
 3323 0f74 0E94 0000 		call _Z18i2cWaitForCompletev
 3324               	.LM716:
 3325 0f78 82E2      		ldi r24,lo8(34)
 3326 0f7a 0E94 0000 		call _Z11i2cSendByteh
 3327               	.LM717:
 3328 0f7e 0E94 0000 		call _Z18i2cWaitForCompletev
 3329               	.LBB670:
 3330               	.LBB671:
 3331               	.LM718:
 3332 0f82 519A      		sbi 42-32,1
 3333               	.LM719:
 3334 0f84 F801      		movw r30,r16
 3335 0f86 F082      		st Z,r15
 3336               	.LBE671:
 3337               	.LBE670:
 3338               	.LM720:
 3339 0f88 81ED      		ldi r24,lo8(-47)
 3340 0f8a 0E94 0000 		call _Z11i2cSendByteh
 3341               	.LM721:
 3342 0f8e 0E94 0000 		call _Z18i2cWaitForCompletev
 3343               	.LM722:
 3344 0f92 80E0      		ldi r24,lo8(0)
 3345 0f94 0E94 0000 		call _Z14i2cReceiveByteh
 3346               	.LM723:
 3347 0f98 0E94 0000 		call _Z18i2cWaitForCompletev
 3348               	.LBB672:
 3349               	.LBB673:
 3350               	.LM724:
 3351 0f9c F501      		movw r30,r10
 3352 0f9e E080      		ld r14,Z
 3353               	.LVL168:
 3354               	.LBE673:
 3355               	.LBE672:
 3356               	.LM725:
 3357 0fa0 0E94 0000 		call _Z18i2cWaitForCompletev
 3358               	.LBB674:
 3359               	.LBB675:
 3360               	.LM726:
 3361 0fa4 F801      		movw r30,r16
 3362 0fa6 7082      		st Z,r7
 3363               	.LBE675:
 3364               	.LBE674:
 3365               	.LM727:
 3366 0fa8 8081      		ld r24,Z
 3367 0faa 8B7F      		andi r24,lo8(-5)
 3368 0fac 8083      		st Z,r24
 3369               	.LM728:
 3370 0fae 8081      		ld r24,Z
 3371 0fb0 8460      		ori r24,lo8(4)
 3372 0fb2 8083      		st Z,r24
 3373               	.LM729:
 3374 0fb4 762D      		mov r23,r6
 3375               	.LVL169:
 3376 0fb6 60E0      		ldi r22,lo8(0)
 3377               	.LVL170:
 3378 0fb8 9924      		clr r9
 3379               	.LVL171:
 3380 0fba 6829      		or r22,r8
 3381 0fbc 7929      		or r23,r9
 3382               	.LVL172:
 3383 0fbe 8827      		clr r24
 3384 0fc0 77FD      		sbrc r23,7
 3385 0fc2 8095      		com r24
 3386 0fc4 982F      		mov r25,r24
 3387               	.LVL173:
 3388 0fc6 0E94 0000 		call __floatsisf
 3389               	.LVL174:
 3390 0fca 3B01      		movw r6,r22
 3391 0fcc 4C01      		movw r8,r24
 3392 0fce F201      		movw r30,r4
 3393 0fd0 6083      		st Z,r22
 3394 0fd2 7183      		std Z+1,r23
 3395 0fd4 8283      		std Z+2,r24
 3396 0fd6 9383      		std Z+3,r25
 3397               	.LM730:
 3398 0fd8 722D      		mov r23,r2
 3399               	.LVL175:
 3400 0fda 60E0      		ldi r22,lo8(0)
 3401               	.LVL176:
 3402 0fdc DD24      		clr r13
 3403               	.LVL177:
 3404 0fde 6C29      		or r22,r12
 3405 0fe0 7D29      		or r23,r13
 3406               	.LVL178:
 3407 0fe2 8827      		clr r24
 3408 0fe4 77FD      		sbrc r23,7
 3409 0fe6 8095      		com r24
 3410 0fe8 982F      		mov r25,r24
 3411               	.LVL179:
 3412 0fea 0E94 0000 		call __floatsisf
 3413               	.LVL180:
 3414 0fee 5B01      		movw r10,r22
 3415 0ff0 6C01      		movw r12,r24
 3416 0ff2 F201      		movw r30,r4
 3417 0ff4 6483      		std Z+4,r22
 3418 0ff6 7583      		std Z+5,r23
 3419 0ff8 8683      		std Z+6,r24
 3420 0ffa 9783      		std Z+7,r25
 3421               	.LM731:
 3422 0ffc 732D      		mov r23,r3
 3423               	.LVL181:
 3424 0ffe 60E0      		ldi r22,lo8(0)
 3425               	.LVL182:
 3426 1000 FF24      		clr r15
 3427               	.LVL183:
 3428 1002 6E29      		or r22,r14
 3429 1004 7F29      		or r23,r15
 3430               	.LVL184:
 3431 1006 8827      		clr r24
 3432 1008 77FD      		sbrc r23,7
 3433 100a 8095      		com r24
 3434 100c 982F      		mov r25,r24
 3435               	.LVL185:
 3436 100e 0E94 0000 		call __floatsisf
 3437               	.LVL186:
 3438 1012 7B01      		movw r14,r22
 3439 1014 8C01      		movw r16,r24
 3440               	.LVL187:
 3441 1016 F201      		movw r30,r4
 3442 1018 6087      		std Z+8,r22
 3443 101a 7187      		std Z+9,r23
 3444 101c 8287      		std Z+10,r24
 3445 101e 9387      		std Z+11,r25
 3446               	.LM732:
 3447 1020 C401      		movw r24,r8
 3448 1022 B301      		movw r22,r6
 3449 1024 20E0      		ldi r18,lo8(0x42640000)
 3450 1026 30E0      		ldi r19,hi8(0x42640000)
 3451 1028 44E6      		ldi r20,hlo8(0x42640000)
 3452 102a 52E4      		ldi r21,hhi8(0x42640000)
 3453 102c 0E94 0000 		call __addsf3
 3454 1030 F201      		movw r30,r4
 3455 1032 6083      		st Z,r22
 3456 1034 7183      		std Z+1,r23
 3457 1036 8283      		std Z+2,r24
 3458 1038 9383      		std Z+3,r25
 3459               	.LM733:
 3460 103a C601      		movw r24,r12
 3461 103c B501      		movw r22,r10
 3462 103e 20E0      		ldi r18,lo8(0x41500000)
 3463 1040 30E0      		ldi r19,hi8(0x41500000)
 3464 1042 40E5      		ldi r20,hlo8(0x41500000)
 3465 1044 51E4      		ldi r21,hhi8(0x41500000)
 3466 1046 0E94 0000 		call __addsf3
 3467 104a F201      		movw r30,r4
 3468 104c 6483      		std Z+4,r22
 3469 104e 7583      		std Z+5,r23
 3470 1050 8683      		std Z+6,r24
 3471 1052 9783      		std Z+7,r25
 3472               	.LM734:
 3473 1054 C801      		movw r24,r16
 3474 1056 B701      		movw r22,r14
 3475 1058 20E0      		ldi r18,lo8(0x40a00000)
 3476 105a 30E0      		ldi r19,hi8(0x40a00000)
 3477 105c 40EA      		ldi r20,hlo8(0x40a00000)
 3478 105e 50E4      		ldi r21,hhi8(0x40a00000)
 3479 1060 0E94 0000 		call __addsf3
 3480 1064 F201      		movw r30,r4
 3481 1066 6087      		std Z+8,r22
 3482 1068 7187      		std Z+9,r23
 3483 106a 8287      		std Z+10,r24
 3484 106c 9387      		std Z+11,r25
 3485               	/* epilogue start */
 3486               	.LBE627:
 3487               	.LM735:
 3488 106e 1F91      		pop r17
 3489 1070 0F91      		pop r16
 3490 1072 FF90      		pop r15
 3491               	.LVL188:
 3492 1074 EF90      		pop r14
 3493 1076 DF90      		pop r13
 3494               	.LVL189:
 3495 1078 CF90      		pop r12
 3496               	.LVL190:
 3497 107a BF90      		pop r11
 3498 107c AF90      		pop r10
 3499 107e 9F90      		pop r9
 3500               	.LVL191:
 3501 1080 8F90      		pop r8
 3502               	.LVL192:
 3503 1082 7F90      		pop r7
 3504 1084 6F90      		pop r6
 3505 1086 5F90      		pop r5
 3506 1088 4F90      		pop r4
 3507               	.LVL193:
 3508 108a 3F90      		pop r3
 3509 108c 2F90      		pop r2
 3510 108e 0895      		ret
 3511               	.LFE135:
 3513               	.global	_Z12vector_crossPK6vectorS1_PS_
 3515               	_Z12vector_crossPK6vectorS1_PS_:
 3516               	.LFB136:
 3517               	.LM736:
 3518               	.LVL194:
 3519 1090 8F92      		push r8
 3520 1092 9F92      		push r9
 3521 1094 AF92      		push r10
 3522 1096 BF92      		push r11
 3523 1098 CF92      		push r12
 3524 109a DF92      		push r13
 3525 109c EF92      		push r14
 3526 109e FF92      		push r15
 3527 10a0 0F93      		push r16
 3528 10a2 1F93      		push r17
 3529               	/* prologue: function */
 3530               	/* frame size = 0 */
 3531 10a4 6C01      		movw r12,r24
 3532 10a6 5B01      		movw r10,r22
 3533 10a8 4A01      		movw r8,r20
 3534               	.LM737:
 3535 10aa FC01      		movw r30,r24
 3536 10ac 6481      		ldd r22,Z+4
 3537 10ae 7581      		ldd r23,Z+5
 3538 10b0 8681      		ldd r24,Z+6
 3539 10b2 9781      		ldd r25,Z+7
 3540               	.LVL195:
 3541 10b4 F501      		movw r30,r10
 3542 10b6 2085      		ldd r18,Z+8
 3543 10b8 3185      		ldd r19,Z+9
 3544 10ba 4285      		ldd r20,Z+10
 3545 10bc 5385      		ldd r21,Z+11
 3546 10be 0E94 0000 		call __mulsf3
 3547               	.LVL196:
 3548 10c2 7B01      		movw r14,r22
 3549 10c4 8C01      		movw r16,r24
 3550 10c6 F601      		movw r30,r12
 3551 10c8 6085      		ldd r22,Z+8
 3552 10ca 7185      		ldd r23,Z+9
 3553 10cc 8285      		ldd r24,Z+10
 3554 10ce 9385      		ldd r25,Z+11
 3555 10d0 F501      		movw r30,r10
 3556 10d2 2481      		ldd r18,Z+4
 3557 10d4 3581      		ldd r19,Z+5
 3558 10d6 4681      		ldd r20,Z+6
 3559 10d8 5781      		ldd r21,Z+7
 3560 10da 0E94 0000 		call __mulsf3
 3561 10de 9B01      		movw r18,r22
 3562 10e0 AC01      		movw r20,r24
 3563 10e2 C801      		movw r24,r16
 3564 10e4 B701      		movw r22,r14
 3565 10e6 0E94 0000 		call __subsf3
 3566 10ea F401      		movw r30,r8
 3567 10ec 6083      		st Z,r22
 3568 10ee 7183      		std Z+1,r23
 3569 10f0 8283      		std Z+2,r24
 3570 10f2 9383      		std Z+3,r25
 3571               	.LM738:
 3572 10f4 F601      		movw r30,r12
 3573 10f6 6085      		ldd r22,Z+8
 3574 10f8 7185      		ldd r23,Z+9
 3575 10fa 8285      		ldd r24,Z+10
 3576 10fc 9385      		ldd r25,Z+11
 3577 10fe F501      		movw r30,r10
 3578 1100 2081      		ld r18,Z
 3579 1102 3181      		ldd r19,Z+1
 3580 1104 4281      		ldd r20,Z+2
 3581 1106 5381      		ldd r21,Z+3
 3582 1108 0E94 0000 		call __mulsf3
 3583 110c 7B01      		movw r14,r22
 3584 110e 8C01      		movw r16,r24
 3585 1110 F601      		movw r30,r12
 3586 1112 6081      		ld r22,Z
 3587 1114 7181      		ldd r23,Z+1
 3588 1116 8281      		ldd r24,Z+2
 3589 1118 9381      		ldd r25,Z+3
 3590 111a F501      		movw r30,r10
 3591 111c 2085      		ldd r18,Z+8
 3592 111e 3185      		ldd r19,Z+9
 3593 1120 4285      		ldd r20,Z+10
 3594 1122 5385      		ldd r21,Z+11
 3595 1124 0E94 0000 		call __mulsf3
 3596 1128 9B01      		movw r18,r22
 3597 112a AC01      		movw r20,r24
 3598 112c C801      		movw r24,r16
 3599 112e B701      		movw r22,r14
 3600 1130 0E94 0000 		call __subsf3
 3601 1134 F401      		movw r30,r8
 3602 1136 6483      		std Z+4,r22
 3603 1138 7583      		std Z+5,r23
 3604 113a 8683      		std Z+6,r24
 3605 113c 9783      		std Z+7,r25
 3606               	.LM739:
 3607 113e F601      		movw r30,r12
 3608 1140 6081      		ld r22,Z
 3609 1142 7181      		ldd r23,Z+1
 3610 1144 8281      		ldd r24,Z+2
 3611 1146 9381      		ldd r25,Z+3
 3612 1148 F501      		movw r30,r10
 3613 114a 2481      		ldd r18,Z+4
 3614 114c 3581      		ldd r19,Z+5
 3615 114e 4681      		ldd r20,Z+6
 3616 1150 5781      		ldd r21,Z+7
 3617 1152 0E94 0000 		call __mulsf3
 3618 1156 7B01      		movw r14,r22
 3619 1158 8C01      		movw r16,r24
 3620 115a F601      		movw r30,r12
 3621 115c 6481      		ldd r22,Z+4
 3622 115e 7581      		ldd r23,Z+5
 3623 1160 8681      		ldd r24,Z+6
 3624 1162 9781      		ldd r25,Z+7
 3625 1164 F501      		movw r30,r10
 3626 1166 2081      		ld r18,Z
 3627 1168 3181      		ldd r19,Z+1
 3628 116a 4281      		ldd r20,Z+2
 3629 116c 5381      		ldd r21,Z+3
 3630 116e 0E94 0000 		call __mulsf3
 3631 1172 9B01      		movw r18,r22
 3632 1174 AC01      		movw r20,r24
 3633 1176 C801      		movw r24,r16
 3634 1178 B701      		movw r22,r14
 3635 117a 0E94 0000 		call __subsf3
 3636 117e F401      		movw r30,r8
 3637 1180 6087      		std Z+8,r22
 3638 1182 7187      		std Z+9,r23
 3639 1184 8287      		std Z+10,r24
 3640 1186 9387      		std Z+11,r25
 3641               	/* epilogue start */
 3642               	.LM740:
 3643 1188 1F91      		pop r17
 3644 118a 0F91      		pop r16
 3645 118c FF90      		pop r15
 3646 118e EF90      		pop r14
 3647 1190 DF90      		pop r13
 3648 1192 CF90      		pop r12
 3649               	.LVL197:
 3650 1194 BF90      		pop r11
 3651 1196 AF90      		pop r10
 3652               	.LVL198:
 3653 1198 9F90      		pop r9
 3654 119a 8F90      		pop r8
 3655               	.LVL199:
 3656 119c 0895      		ret
 3657               	.LFE136:
 3659               	.global	_Z10vector_dotPK6vectorS1_
 3661               	_Z10vector_dotPK6vectorS1_:
 3662               	.LFB137:
 3663               	.LM741:
 3664               	.LVL200:
 3665 119e AF92      		push r10
 3666 11a0 BF92      		push r11
 3667 11a2 CF92      		push r12
 3668 11a4 DF92      		push r13
 3669 11a6 EF92      		push r14
 3670 11a8 FF92      		push r15
 3671 11aa 0F93      		push r16
 3672 11ac 1F93      		push r17
 3673               	/* prologue: function */
 3674               	/* frame size = 0 */
 3675 11ae 6C01      		movw r12,r24
 3676 11b0 5B01      		movw r10,r22
 3677               	.LM742:
 3678 11b2 FC01      		movw r30,r24
 3679 11b4 6081      		ld r22,Z
 3680 11b6 7181      		ldd r23,Z+1
 3681 11b8 8281      		ldd r24,Z+2
 3682 11ba 9381      		ldd r25,Z+3
 3683               	.LVL201:
 3684 11bc F501      		movw r30,r10
 3685 11be 2081      		ld r18,Z
 3686 11c0 3181      		ldd r19,Z+1
 3687 11c2 4281      		ldd r20,Z+2
 3688 11c4 5381      		ldd r21,Z+3
 3689 11c6 0E94 0000 		call __mulsf3
 3690               	.LVL202:
 3691 11ca 7B01      		movw r14,r22
 3692 11cc 8C01      		movw r16,r24
 3693 11ce F601      		movw r30,r12
 3694 11d0 6481      		ldd r22,Z+4
 3695 11d2 7581      		ldd r23,Z+5
 3696 11d4 8681      		ldd r24,Z+6
 3697 11d6 9781      		ldd r25,Z+7
 3698 11d8 F501      		movw r30,r10
 3699 11da 2481      		ldd r18,Z+4
 3700 11dc 3581      		ldd r19,Z+5
 3701 11de 4681      		ldd r20,Z+6
 3702 11e0 5781      		ldd r21,Z+7
 3703 11e2 0E94 0000 		call __mulsf3
 3704 11e6 9B01      		movw r18,r22
 3705 11e8 AC01      		movw r20,r24
 3706 11ea C801      		movw r24,r16
 3707 11ec B701      		movw r22,r14
 3708 11ee 0E94 0000 		call __addsf3
 3709 11f2 7B01      		movw r14,r22
 3710 11f4 8C01      		movw r16,r24
 3711 11f6 F601      		movw r30,r12
 3712 11f8 6085      		ldd r22,Z+8
 3713 11fa 7185      		ldd r23,Z+9
 3714 11fc 8285      		ldd r24,Z+10
 3715 11fe 9385      		ldd r25,Z+11
 3716 1200 F501      		movw r30,r10
 3717 1202 2085      		ldd r18,Z+8
 3718 1204 3185      		ldd r19,Z+9
 3719 1206 4285      		ldd r20,Z+10
 3720 1208 5385      		ldd r21,Z+11
 3721 120a 0E94 0000 		call __mulsf3
 3722 120e 9B01      		movw r18,r22
 3723 1210 AC01      		movw r20,r24
 3724 1212 C801      		movw r24,r16
 3725 1214 B701      		movw r22,r14
 3726 1216 0E94 0000 		call __addsf3
 3727               	/* epilogue start */
 3728               	.LM743:
 3729 121a 1F91      		pop r17
 3730 121c 0F91      		pop r16
 3731 121e FF90      		pop r15
 3732 1220 EF90      		pop r14
 3733 1222 DF90      		pop r13
 3734 1224 CF90      		pop r12
 3735               	.LVL203:
 3736 1226 BF90      		pop r11
 3737 1228 AF90      		pop r10
 3738               	.LVL204:
 3739 122a 0895      		ret
 3740               	.LFE137:
 3742               	.global	_Z7accel_gP6vector
 3744               	_Z7accel_gP6vector:
 3745               	.LFB139:
 3746               	.LM744:
 3747               	.LVL205:
 3748 122c 0F93      		push r16
 3749 122e 1F93      		push r17
 3750               	/* prologue: function */
 3751               	/* frame size = 0 */
 3752 1230 8C01      		movw r16,r24
 3753               	.LBB676:
 3754               	.LM745:
 3755 1232 FC01      		movw r30,r24
 3756 1234 6081      		ld r22,Z
 3757 1236 7181      		ldd r23,Z+1
 3758 1238 8281      		ldd r24,Z+2
 3759 123a 9381      		ldd r25,Z+3
 3760 123c 20E0      		ldi r18,lo8(0x46fffe00)
 3761 123e 3EEF      		ldi r19,hi8(0x46fffe00)
 3762 1240 4FEF      		ldi r20,hlo8(0x46fffe00)
 3763 1242 56E4      		ldi r21,hhi8(0x46fffe00)
 3764 1244 0E94 0000 		call __divsf3
 3765               	.LVL206:
 3766 1248 9B01      		movw r18,r22
 3767 124a AC01      		movw r20,r24
 3768 124c 0E94 0000 		call __addsf3
 3769 1250 F801      		movw r30,r16
 3770 1252 6083      		st Z,r22
 3771 1254 7183      		std Z+1,r23
 3772 1256 8283      		std Z+2,r24
 3773 1258 9383      		std Z+3,r25
 3774               	.LM746:
 3775 125a 6481      		ldd r22,Z+4
 3776 125c 7581      		ldd r23,Z+5
 3777 125e 8681      		ldd r24,Z+6
 3778 1260 9781      		ldd r25,Z+7
 3779 1262 20E0      		ldi r18,lo8(0x46fffe00)
 3780 1264 3EEF      		ldi r19,hi8(0x46fffe00)
 3781 1266 4FEF      		ldi r20,hlo8(0x46fffe00)
 3782 1268 56E4      		ldi r21,hhi8(0x46fffe00)
 3783 126a 0E94 0000 		call __divsf3
 3784 126e 9B01      		movw r18,r22
 3785 1270 AC01      		movw r20,r24
 3786 1272 0E94 0000 		call __addsf3
 3787 1276 F801      		movw r30,r16
 3788 1278 6483      		std Z+4,r22
 3789 127a 7583      		std Z+5,r23
 3790 127c 8683      		std Z+6,r24
 3791 127e 9783      		std Z+7,r25
 3792               	.LM747:
 3793 1280 6085      		ldd r22,Z+8
 3794 1282 7185      		ldd r23,Z+9
 3795 1284 8285      		ldd r24,Z+10
 3796 1286 9385      		ldd r25,Z+11
 3797 1288 20E0      		ldi r18,lo8(0x46fffe00)
 3798 128a 3EEF      		ldi r19,hi8(0x46fffe00)
 3799 128c 4FEF      		ldi r20,hlo8(0x46fffe00)
 3800 128e 56E4      		ldi r21,hhi8(0x46fffe00)
 3801 1290 0E94 0000 		call __divsf3
 3802 1294 9B01      		movw r18,r22
 3803 1296 AC01      		movw r20,r24
 3804 1298 0E94 0000 		call __addsf3
 3805 129c F801      		movw r30,r16
 3806 129e 6087      		std Z+8,r22
 3807 12a0 7187      		std Z+9,r23
 3808 12a2 8287      		std Z+10,r24
 3809 12a4 9387      		std Z+11,r25
 3810               	/* epilogue start */
 3811               	.LBE676:
 3812               	.LM748:
 3813 12a6 1F91      		pop r17
 3814 12a8 0F91      		pop r16
 3815               	.LVL207:
 3816 12aa 0895      		ret
 3817               	.LFE139:
 3819               	.global	_Z8gyro_dpsP6vector
 3821               	_Z8gyro_dpsP6vector:
 3822               	.LFB145:
 3823               	.LM749:
 3824               	.LVL208:
 3825 12ac 0F93      		push r16
 3826 12ae 1F93      		push r17
 3827               	/* prologue: function */
 3828               	/* frame size = 0 */
 3829 12b0 8C01      		movw r16,r24
 3830               	.LBB677:
 3831               	.LM750:
 3832 12b2 FC01      		movw r30,r24
 3833 12b4 6081      		ld r22,Z
 3834 12b6 7181      		ldd r23,Z+1
 3835 12b8 8281      		ldd r24,Z+2
 3836 12ba 9381      		ldd r25,Z+3
 3837 12bc 20E0      		ldi r18,lo8(0x477fff00)
 3838 12be 3FEF      		ldi r19,hi8(0x477fff00)
 3839 12c0 4FE7      		ldi r20,hlo8(0x477fff00)
 3840 12c2 57E4      		ldi r21,hhi8(0x477fff00)
 3841 12c4 0E94 0000 		call __divsf3
 3842               	.LVL209:
 3843 12c8 20E0      		ldi r18,lo8(0x44fa0000)
 3844 12ca 30E0      		ldi r19,hi8(0x44fa0000)
 3845 12cc 4AEF      		ldi r20,hlo8(0x44fa0000)
 3846 12ce 54E4      		ldi r21,hhi8(0x44fa0000)
 3847 12d0 0E94 0000 		call __mulsf3
 3848 12d4 F801      		movw r30,r16
 3849 12d6 6083      		st Z,r22
 3850 12d8 7183      		std Z+1,r23
 3851 12da 8283      		std Z+2,r24
 3852 12dc 9383      		std Z+3,r25
 3853               	.LM751:
 3854 12de 6481      		ldd r22,Z+4
 3855 12e0 7581      		ldd r23,Z+5
 3856 12e2 8681      		ldd r24,Z+6
 3857 12e4 9781      		ldd r25,Z+7
 3858 12e6 20E0      		ldi r18,lo8(0x477fff00)
 3859 12e8 3FEF      		ldi r19,hi8(0x477fff00)
 3860 12ea 4FE7      		ldi r20,hlo8(0x477fff00)
 3861 12ec 57E4      		ldi r21,hhi8(0x477fff00)
 3862 12ee 0E94 0000 		call __divsf3
 3863 12f2 20E0      		ldi r18,lo8(0x44fa0000)
 3864 12f4 30E0      		ldi r19,hi8(0x44fa0000)
 3865 12f6 4AEF      		ldi r20,hlo8(0x44fa0000)
 3866 12f8 54E4      		ldi r21,hhi8(0x44fa0000)
 3867 12fa 0E94 0000 		call __mulsf3
 3868 12fe F801      		movw r30,r16
 3869 1300 6483      		std Z+4,r22
 3870 1302 7583      		std Z+5,r23
 3871 1304 8683      		std Z+6,r24
 3872 1306 9783      		std Z+7,r25
 3873               	.LM752:
 3874 1308 6085      		ldd r22,Z+8
 3875 130a 7185      		ldd r23,Z+9
 3876 130c 8285      		ldd r24,Z+10
 3877 130e 9385      		ldd r25,Z+11
 3878 1310 20E0      		ldi r18,lo8(0x477fff00)
 3879 1312 3FEF      		ldi r19,hi8(0x477fff00)
 3880 1314 4FE7      		ldi r20,hlo8(0x477fff00)
 3881 1316 57E4      		ldi r21,hhi8(0x477fff00)
 3882 1318 0E94 0000 		call __divsf3
 3883 131c 20E0      		ldi r18,lo8(0x44fa0000)
 3884 131e 30E0      		ldi r19,hi8(0x44fa0000)
 3885 1320 4AEF      		ldi r20,hlo8(0x44fa0000)
 3886 1322 54E4      		ldi r21,hhi8(0x44fa0000)
 3887 1324 0E94 0000 		call __mulsf3
 3888 1328 F801      		movw r30,r16
 3889 132a 6087      		std Z+8,r22
 3890 132c 7187      		std Z+9,r23
 3891 132e 8287      		std Z+10,r24
 3892 1330 9387      		std Z+11,r25
 3893               	/* epilogue start */
 3894               	.LBE677:
 3895               	.LM753:
 3896 1332 1F91      		pop r17
 3897 1334 0F91      		pop r16
 3898               	.LVL210:
 3899 1336 0895      		ret
 3900               	.LFE145:
 3902               	.global	_Z10gyro_angle6vector
 3904               	_Z10gyro_angle6vector:
 3905               	.LFB146:
 3906               	.LM754:
 3907 1338 6F92      		push r6
 3908 133a 7F92      		push r7
 3909 133c 8F92      		push r8
 3910 133e 9F92      		push r9
 3911 1340 AF92      		push r10
 3912 1342 BF92      		push r11
 3913 1344 CF92      		push r12
 3914 1346 DF92      		push r13
 3915 1348 EF92      		push r14
 3916 134a FF92      		push r15
 3917 134c 0F93      		push r16
 3918 134e 1F93      		push r17
 3919 1350 DF93      		push r29
 3920 1352 CF93      		push r28
 3921 1354 CDB7      		in r28,__SP_L__
 3922 1356 DEB7      		in r29,__SP_H__
 3923 1358 2C97      		sbiw r28,12
 3924 135a 0FB6      		in __tmp_reg__,__SREG__
 3925 135c F894      		cli
 3926 135e DEBF      		out __SP_H__,r29
 3927 1360 0FBE      		out __SREG__,__tmp_reg__
 3928 1362 CDBF      		out __SP_L__,r28
 3929               	/* prologue: function */
 3930               	/* frame size = 12 */
 3931 1364 5C01      		movw r10,r24
 3932 1366 C982      		std Y+1,r12
 3933 1368 DA82      		std Y+2,r13
 3934 136a EB82      		std Y+3,r14
 3935 136c FC82      		std Y+4,r15
 3936 136e 0D83      		std Y+5,r16
 3937 1370 1E83      		std Y+6,r17
 3938 1372 2F83      		std Y+7,r18
 3939 1374 3887      		std Y+8,r19
 3940 1376 4987      		std Y+9,r20
 3941 1378 5A87      		std Y+10,r21
 3942 137a 6B87      		std Y+11,r22
 3943 137c 7C87      		std Y+12,r23
 3944               	.LM755:
 3945 137e 6981      		ldd r22,Y+1
 3946 1380 7A81      		ldd r23,Y+2
 3947 1382 8B81      		ldd r24,Y+3
 3948 1384 9C81      		ldd r25,Y+4
 3949 1386 ED80      		ldd r14,Y+5
 3950 1388 FE80      		ldd r15,Y+6
 3951 138a 0F81      		ldd r16,Y+7
 3952 138c 1885      		ldd r17,Y+8
 3953 138e 6984      		ldd r6,Y+9
 3954 1390 7A84      		ldd r7,Y+10
 3955 1392 8B84      		ldd r8,Y+11
 3956 1394 9C84      		ldd r9,Y+12
 3957               	.LBB678:
 3958               	.LM756:
 3959 1396 D501      		movw r26,r10
 3960 1398 E0E0      		ldi r30,lo8(_ZZ10gyro_angle6vectorE4C.96)
 3961 139a F0E0      		ldi r31,hi8(_ZZ10gyro_angle6vectorE4C.96)
 3962 139c 2CE0      		ldi r18,lo8(12)
 3963               	.L79:
 3964 139e 0190      		ld r0,Z+
 3965 13a0 0D92      		st X+,r0
 3966 13a2 2150      		subi r18,lo8(-(-1))
 3967 13a4 01F4      		brne .L79
 3968               	.LM757:
 3969 13a6 2FE8      		ldi r18,lo8(0x3c75c28f)
 3970 13a8 32EC      		ldi r19,hi8(0x3c75c28f)
 3971 13aa 45E7      		ldi r20,hlo8(0x3c75c28f)
 3972 13ac 5CE3      		ldi r21,hhi8(0x3c75c28f)
 3973 13ae 0E94 0000 		call __mulsf3
 3974 13b2 F501      		movw r30,r10
 3975 13b4 6083      		st Z,r22
 3976 13b6 7183      		std Z+1,r23
 3977 13b8 8283      		std Z+2,r24
 3978 13ba 9383      		std Z+3,r25
 3979               	.LM758:
 3980 13bc C801      		movw r24,r16
 3981 13be B701      		movw r22,r14
 3982 13c0 2FE8      		ldi r18,lo8(0x3c75c28f)
 3983 13c2 32EC      		ldi r19,hi8(0x3c75c28f)
 3984 13c4 45E7      		ldi r20,hlo8(0x3c75c28f)
 3985 13c6 5CE3      		ldi r21,hhi8(0x3c75c28f)
 3986 13c8 0E94 0000 		call __mulsf3
 3987 13cc F501      		movw r30,r10
 3988 13ce 6483      		std Z+4,r22
 3989 13d0 7583      		std Z+5,r23
 3990 13d2 8683      		std Z+6,r24
 3991 13d4 9783      		std Z+7,r25
 3992               	.LM759:
 3993 13d6 C401      		movw r24,r8
 3994 13d8 B301      		movw r22,r6
 3995 13da 2FE8      		ldi r18,lo8(0x3c75c28f)
 3996 13dc 32EC      		ldi r19,hi8(0x3c75c28f)
 3997 13de 45E7      		ldi r20,hlo8(0x3c75c28f)
 3998 13e0 5CE3      		ldi r21,hhi8(0x3c75c28f)
 3999 13e2 0E94 0000 		call __mulsf3
 4000 13e6 F501      		movw r30,r10
 4001 13e8 6087      		std Z+8,r22
 4002 13ea 7187      		std Z+9,r23
 4003 13ec 8287      		std Z+10,r24
 4004 13ee 9387      		std Z+11,r25
 4005               	.LBE678:
 4006               	.LM760:
 4007 13f0 C501      		movw r24,r10
 4008               	/* epilogue start */
 4009 13f2 2C96      		adiw r28,12
 4010 13f4 0FB6      		in __tmp_reg__,__SREG__
 4011 13f6 F894      		cli
 4012 13f8 DEBF      		out __SP_H__,r29
 4013 13fa 0FBE      		out __SREG__,__tmp_reg__
 4014 13fc CDBF      		out __SP_L__,r28
 4015 13fe CF91      		pop r28
 4016 1400 DF91      		pop r29
 4017 1402 1F91      		pop r17
 4018 1404 0F91      		pop r16
 4019 1406 FF90      		pop r15
 4020 1408 EF90      		pop r14
 4021 140a DF90      		pop r13
 4022 140c CF90      		pop r12
 4023 140e BF90      		pop r11
 4024 1410 AF90      		pop r10
 4025 1412 9F90      		pop r9
 4026 1414 8F90      		pop r8
 4027 1416 7F90      		pop r7
 4028 1418 6F90      		pop r6
 4029 141a 0895      		ret
 4030               	.LFE146:
 4032               	.global	_Z22gyro_angle_acquisitionv
 4034               	_Z22gyro_angle_acquisitionv:
 4035               	.LFB144:
 4036               	.LM761:
 4037 141c AF92      		push r10
 4038 141e BF92      		push r11
 4039 1420 CF92      		push r12
 4040 1422 DF92      		push r13
 4041 1424 EF92      		push r14
 4042 1426 FF92      		push r15
 4043 1428 0F93      		push r16
 4044 142a 1F93      		push r17
 4045 142c DF93      		push r29
 4046 142e CF93      		push r28
 4047 1430 CDB7      		in r28,__SP_L__
 4048 1432 DEB7      		in r29,__SP_H__
 4049 1434 2C97      		sbiw r28,12
 4050 1436 0FB6      		in __tmp_reg__,__SREG__
 4051 1438 F894      		cli
 4052 143a DEBF      		out __SP_H__,r29
 4053 143c 0FBE      		out __SREG__,__tmp_reg__
 4054 143e CDBF      		out __SP_L__,r28
 4055               	/* prologue: function */
 4056               	/* frame size = 12 */
 4057 1440 5C01      		movw r10,r24
 4058               	.LBB679:
 4059               	.LM762:
 4060 1442 8E01      		movw r16,r28
 4061 1444 0F5F      		subi r16,lo8(-(1))
 4062 1446 1F4F      		sbci r17,hi8(-(1))
 4063 1448 C801      		movw r24,r16
 4064 144a 0E94 0000 		call _Z14gyro_read_dataP6vector
 4065               	.LM763:
 4066 144e C801      		movw r24,r16
 4067 1450 0E94 0000 		call _Z8gyro_dpsP6vector
 4068               	.LM764:
 4069 1454 C501      		movw r24,r10
 4070 1456 C980      		ldd r12,Y+1
 4071 1458 DA80      		ldd r13,Y+2
 4072 145a EB80      		ldd r14,Y+3
 4073 145c FC80      		ldd r15,Y+4
 4074 145e 0D81      		ldd r16,Y+5
 4075 1460 1E81      		ldd r17,Y+6
 4076 1462 2F81      		ldd r18,Y+7
 4077 1464 3885      		ldd r19,Y+8
 4078 1466 4985      		ldd r20,Y+9
 4079 1468 5A85      		ldd r21,Y+10
 4080 146a 6B85      		ldd r22,Y+11
 4081 146c 7C85      		ldd r23,Y+12
 4082 146e 0E94 0000 		call _Z10gyro_angle6vector
 4083               	.LBE679:
 4084               	.LM765:
 4085 1472 C501      		movw r24,r10
 4086               	/* epilogue start */
 4087 1474 2C96      		adiw r28,12
 4088 1476 0FB6      		in __tmp_reg__,__SREG__
 4089 1478 F894      		cli
 4090 147a DEBF      		out __SP_H__,r29
 4091 147c 0FBE      		out __SREG__,__tmp_reg__
 4092 147e CDBF      		out __SP_L__,r28
 4093 1480 CF91      		pop r28
 4094 1482 DF91      		pop r29
 4095 1484 1F91      		pop r17
 4096 1486 0F91      		pop r16
 4097 1488 FF90      		pop r15
 4098 148a EF90      		pop r14
 4099 148c DF90      		pop r13
 4100 148e CF90      		pop r12
 4101 1490 BF90      		pop r11
 4102 1492 AF90      		pop r10
 4103 1494 0895      		ret
 4104               	.LFE144:
 4106               	.global	_Z22gyro_measurement_noisev
 4108               	_Z22gyro_measurement_noisev:
 4109               	.LFB147:
 4110               	.LM766:
 4111 1496 2F92      		push r2
 4112 1498 3F92      		push r3
 4113 149a 4F92      		push r4
 4114 149c 5F92      		push r5
 4115 149e 6F92      		push r6
 4116 14a0 7F92      		push r7
 4117 14a2 8F92      		push r8
 4118 14a4 9F92      		push r9
 4119 14a6 AF92      		push r10
 4120 14a8 BF92      		push r11
 4121 14aa CF92      		push r12
 4122 14ac DF92      		push r13
 4123 14ae EF92      		push r14
 4124 14b0 FF92      		push r15
 4125 14b2 0F93      		push r16
 4126 14b4 1F93      		push r17
 4127 14b6 DF93      		push r29
 4128 14b8 CF93      		push r28
 4129 14ba CDB7      		in r28,__SP_L__
 4130 14bc DEB7      		in r29,__SP_H__
 4131 14be C258      		subi r28,lo8(-(-386))
 4132 14c0 D140      		sbci r29,hi8(-(-386))
 4133 14c2 0FB6      		in __tmp_reg__,__SREG__
 4134 14c4 F894      		cli
 4135 14c6 DEBF      		out __SP_H__,r29
 4136 14c8 0FBE      		out __SREG__,__tmp_reg__
 4137 14ca CDBF      		out __SP_L__,r28
 4138               	/* prologue: function */
 4139               	/* frame size = 386 */
 4140 14cc CF57      		subi r28,lo8(-385)
 4141 14ce DE4F      		sbci r29,hi8(-385)
 4142 14d0 9983      		std Y+1,r25
 4143 14d2 8883      		st Y,r24
 4144 14d4 C158      		subi r28,lo8(385)
 4145 14d6 D140      		sbci r29,hi8(385)
 4146               	.LBB680:
 4147               	.LM767:
 4148 14d8 DC01      		movw r26,r24
 4149 14da E0E0      		ldi r30,lo8(_ZZ22gyro_measurement_noisevE4C.97)
 4150 14dc F0E0      		ldi r31,hi8(_ZZ22gyro_measurement_noisevE4C.97)
 4151 14de 8CE0      		ldi r24,lo8(12)
 4152               	.L85:
 4153 14e0 0190      		ld r0,Z+
 4154 14e2 0D92      		st X+,r0
 4155 14e4 8150      		subi r24,lo8(-(-1))
 4156 14e6 01F4      		brne .L85
 4157 14e8 AA24      		clr r10
 4158 14ea BB24      		clr r11
 4159               	.LVL211:
 4160               	.LBB681:
 4161               	.LM768:
 4162 14ec 4E01      		movw r8,r28
 4163 14ee 0894      		sec
 4164 14f0 811C      		adc r8,__zero_reg__
 4165 14f2 911C      		adc r9,__zero_reg__
 4166               	.L86:
 4167 14f4 C401      		movw r24,r8
 4168 14f6 0E94 0000 		call _Z14gyro_read_dataP6vector
 4169               	.LM769:
 4170 14fa C401      		movw r24,r8
 4171 14fc 0E94 0000 		call _Z8gyro_dpsP6vector
 4172               	.LM770:
 4173 1500 C501      		movw r24,r10
 4174 1502 880F      		lsl r24
 4175 1504 991F      		rol r25
 4176 1506 8A0D      		add r24,r10
 4177 1508 9B1D      		adc r25,r11
 4178 150a 880F      		lsl r24
 4179 150c 991F      		rol r25
 4180 150e 880F      		lsl r24
 4181 1510 991F      		rol r25
 4182 1512 880D      		add r24,r8
 4183 1514 991D      		adc r25,r9
 4184 1516 0C96      		adiw r24,12
 4185 1518 C980      		ldd r12,Y+1
 4186 151a DA80      		ldd r13,Y+2
 4187 151c EB80      		ldd r14,Y+3
 4188 151e FC80      		ldd r15,Y+4
 4189 1520 0D81      		ldd r16,Y+5
 4190 1522 1E81      		ldd r17,Y+6
 4191 1524 2F81      		ldd r18,Y+7
 4192 1526 3885      		ldd r19,Y+8
 4193 1528 4985      		ldd r20,Y+9
 4194 152a 5A85      		ldd r21,Y+10
 4195 152c 6B85      		ldd r22,Y+11
 4196 152e 7C85      		ldd r23,Y+12
 4197 1530 0E94 0000 		call _Z10gyro_angle6vector
 4198               	.LM771:
 4199 1534 0894      		sec
 4200 1536 A11C      		adc r10,__zero_reg__
 4201 1538 B11C      		adc r11,__zero_reg__
 4202 153a 84E1      		ldi r24,lo8(20)
 4203 153c A816      		cp r10,r24
 4204 153e B104      		cpc r11,__zero_reg__
 4205 1540 01F4      		brne .L86
 4206 1542 9DE0      		ldi r25,lo8(13)
 4207 1544 E92E      		mov r14,r25
 4208 1546 F12C      		mov r15,__zero_reg__
 4209 1548 EC0E      		add r14,r28
 4210 154a FD1E      		adc r15,r29
 4211 154c 8701      		movw r16,r14
 4212 154e 80E0      		ldi r24,lo8(0x0)
 4213 1550 90E0      		ldi r25,hi8(0x0)
 4214 1552 A0E0      		ldi r26,hlo8(0x0)
 4215 1554 B0E0      		ldi r27,hhi8(0x0)
 4216 1556 C358      		subi r28,lo8(-381)
 4217 1558 DE4F      		sbci r29,hi8(-381)
 4218 155a 8883      		st Y,r24
 4219 155c 9983      		std Y+1,r25
 4220 155e AA83      		std Y+2,r26
 4221 1560 BB83      		std Y+3,r27
 4222 1562 CD57      		subi r28,lo8(381)
 4223 1564 D140      		sbci r29,hi8(381)
 4224 1566 1C01      		movw r2,r24
 4225 1568 2D01      		movw r4,r26
 4226 156a 3C01      		movw r6,r24
 4227 156c 4D01      		movw r8,r26
 4228               	.LBE681:
 4229               	.LBB682:
 4230               	.LM772:
 4231 156e 8DEF      		ldi r24,lo8(253)
 4232 1570 C82E      		mov r12,r24
 4233 1572 D12C      		mov r13,__zero_reg__
 4234 1574 CC0E      		add r12,r28
 4235 1576 DD1E      		adc r13,r29
 4236               	.L87:
 4237               	.LM773:
 4238 1578 C401      		movw r24,r8
 4239 157a B301      		movw r22,r6
 4240 157c D801      		movw r26,r16
 4241 157e 2D91      		ld r18,X+
 4242 1580 3D91      		ld r19,X+
 4243 1582 4D91      		ld r20,X+
 4244 1584 5C91      		ld r21,X
 4245 1586 0E94 0000 		call __addsf3
 4246 158a 3B01      		movw r6,r22
 4247 158c 4C01      		movw r8,r24
 4248               	.LM774:
 4249 158e C201      		movw r24,r4
 4250 1590 B101      		movw r22,r2
 4251 1592 F801      		movw r30,r16
 4252 1594 2481      		ldd r18,Z+4
 4253 1596 3581      		ldd r19,Z+5
 4254 1598 4681      		ldd r20,Z+6
 4255 159a 5781      		ldd r21,Z+7
 4256 159c 0E94 0000 		call __addsf3
 4257 15a0 1B01      		movw r2,r22
 4258 15a2 2C01      		movw r4,r24
 4259               	.LM775:
 4260 15a4 C358      		subi r28,lo8(-381)
 4261 15a6 DE4F      		sbci r29,hi8(-381)
 4262 15a8 6881      		ld r22,Y
 4263 15aa 7981      		ldd r23,Y+1
 4264 15ac 8A81      		ldd r24,Y+2
 4265 15ae 9B81      		ldd r25,Y+3
 4266 15b0 CD57      		subi r28,lo8(381)
 4267 15b2 D140      		sbci r29,hi8(381)
 4268 15b4 D801      		movw r26,r16
 4269 15b6 1896      		adiw r26,8
 4270 15b8 2D91      		ld r18,X+
 4271 15ba 3D91      		ld r19,X+
 4272 15bc 4D91      		ld r20,X+
 4273 15be 5C91      		ld r21,X
 4274 15c0 1B97      		sbiw r26,8+3
 4275 15c2 0E94 0000 		call __addsf3
 4276 15c6 C358      		subi r28,lo8(-381)
 4277 15c8 DE4F      		sbci r29,hi8(-381)
 4278 15ca 6883      		st Y,r22
 4279 15cc 7983      		std Y+1,r23
 4280 15ce 8A83      		std Y+2,r24
 4281 15d0 9B83      		std Y+3,r25
 4282 15d2 CD57      		subi r28,lo8(381)
 4283 15d4 D140      		sbci r29,hi8(381)
 4284 15d6 045F      		subi r16,lo8(-(12))
 4285 15d8 1F4F      		sbci r17,hi8(-(12))
 4286               	.LM776:
 4287 15da 0C15      		cp r16,r12
 4288 15dc 1D05      		cpc r17,r13
 4289 15de 01F4      		brne .L87
 4290 15e0 80E0      		ldi r24,lo8(0x0)
 4291 15e2 90E0      		ldi r25,hi8(0x0)
 4292 15e4 A0E0      		ldi r26,hlo8(0x0)
 4293 15e6 B0E0      		ldi r27,hhi8(0x0)
 4294 15e8 C758      		subi r28,lo8(-377)
 4295 15ea DE4F      		sbci r29,hi8(-377)
 4296 15ec 8883      		st Y,r24
 4297 15ee 9983      		std Y+1,r25
 4298 15f0 AA83      		std Y+2,r26
 4299 15f2 BB83      		std Y+3,r27
 4300 15f4 C957      		subi r28,lo8(377)
 4301 15f6 D140      		sbci r29,hi8(377)
 4302 15f8 CB58      		subi r28,lo8(-373)
 4303 15fa DE4F      		sbci r29,hi8(-373)
 4304 15fc 8883      		st Y,r24
 4305 15fe 9983      		std Y+1,r25
 4306 1600 AA83      		std Y+2,r26
 4307 1602 BB83      		std Y+3,r27
 4308 1604 C557      		subi r28,lo8(373)
 4309 1606 D140      		sbci r29,hi8(373)
 4310 1608 5C01      		movw r10,r24
 4311 160a 6D01      		movw r12,r26
 4312               	.LVL212:
 4313               	.L88:
 4314               	.LBE682:
 4315               	.LBB683:
 4316               	.LM777:
 4317 160c D701      		movw r26,r14
 4318 160e 2D91      		ld r18,X+
 4319 1610 3D91      		ld r19,X+
 4320 1612 4D91      		ld r20,X+
 4321 1614 5C91      		ld r21,X
 4322 1616 CA01      		movw r24,r20
 4323 1618 B901      		movw r22,r18
 4324 161a 0E94 0000 		call __mulsf3
 4325 161e 9B01      		movw r18,r22
 4326 1620 AC01      		movw r20,r24
 4327 1622 C601      		movw r24,r12
 4328 1624 B501      		movw r22,r10
 4329 1626 0E94 0000 		call __addsf3
 4330 162a 5B01      		movw r10,r22
 4331 162c 6C01      		movw r12,r24
 4332               	.LM778:
 4333 162e F701      		movw r30,r14
 4334 1630 2481      		ldd r18,Z+4
 4335 1632 3581      		ldd r19,Z+5
 4336 1634 4681      		ldd r20,Z+6
 4337 1636 5781      		ldd r21,Z+7
 4338 1638 CA01      		movw r24,r20
 4339 163a B901      		movw r22,r18
 4340 163c 0E94 0000 		call __mulsf3
 4341 1640 9B01      		movw r18,r22
 4342 1642 AC01      		movw r20,r24
 4343 1644 CB58      		subi r28,lo8(-373)
 4344 1646 DE4F      		sbci r29,hi8(-373)
 4345 1648 6881      		ld r22,Y
 4346 164a 7981      		ldd r23,Y+1
 4347 164c 8A81      		ldd r24,Y+2
 4348 164e 9B81      		ldd r25,Y+3
 4349 1650 C557      		subi r28,lo8(373)
 4350 1652 D140      		sbci r29,hi8(373)
 4351 1654 0E94 0000 		call __addsf3
 4352 1658 CB58      		subi r28,lo8(-373)
 4353 165a DE4F      		sbci r29,hi8(-373)
 4354 165c 6883      		st Y,r22
 4355 165e 7983      		std Y+1,r23
 4356 1660 8A83      		std Y+2,r24
 4357 1662 9B83      		std Y+3,r25
 4358 1664 C557      		subi r28,lo8(373)
 4359 1666 D140      		sbci r29,hi8(373)
 4360               	.LM779:
 4361 1668 D701      		movw r26,r14
 4362 166a 1896      		adiw r26,8
 4363 166c 2D91      		ld r18,X+
 4364 166e 3D91      		ld r19,X+
 4365 1670 4D91      		ld r20,X+
 4366 1672 5C91      		ld r21,X
 4367 1674 1B97      		sbiw r26,8+3
 4368 1676 CA01      		movw r24,r20
 4369 1678 B901      		movw r22,r18
 4370 167a 0E94 0000 		call __mulsf3
 4371 167e 9B01      		movw r18,r22
 4372 1680 AC01      		movw r20,r24
 4373 1682 C758      		subi r28,lo8(-377)
 4374 1684 DE4F      		sbci r29,hi8(-377)
 4375 1686 6881      		ld r22,Y
 4376 1688 7981      		ldd r23,Y+1
 4377 168a 8A81      		ldd r24,Y+2
 4378 168c 9B81      		ldd r25,Y+3
 4379 168e C957      		subi r28,lo8(377)
 4380 1690 D140      		sbci r29,hi8(377)
 4381 1692 0E94 0000 		call __addsf3
 4382 1696 C758      		subi r28,lo8(-377)
 4383 1698 DE4F      		sbci r29,hi8(-377)
 4384 169a 6883      		st Y,r22
 4385 169c 7983      		std Y+1,r23
 4386 169e 8A83      		std Y+2,r24
 4387 16a0 9B83      		std Y+3,r25
 4388 16a2 C957      		subi r28,lo8(377)
 4389 16a4 D140      		sbci r29,hi8(377)
 4390 16a6 ECE0      		ldi r30,lo8(12)
 4391 16a8 F0E0      		ldi r31,hi8(12)
 4392 16aa EE0E      		add r14,r30
 4393 16ac FF1E      		adc r15,r31
 4394               	.LM780:
 4395 16ae E016      		cp r14,r16
 4396 16b0 F106      		cpc r15,r17
 4397 16b2 01F0      		breq .+2
 4398 16b4 00C0      		rjmp .L88
 4399               	.LBE683:
 4400               	.LM781:
 4401 16b6 C401      		movw r24,r8
 4402 16b8 B301      		movw r22,r6
 4403 16ba A401      		movw r20,r8
 4404 16bc 9301      		movw r18,r6
 4405 16be 0E94 0000 		call __mulsf3
 4406 16c2 20E0      		ldi r18,lo8(0xc1a00000)
 4407 16c4 30E0      		ldi r19,hi8(0xc1a00000)
 4408 16c6 40EA      		ldi r20,hlo8(0xc1a00000)
 4409 16c8 51EC      		ldi r21,hhi8(0xc1a00000)
 4410 16ca 0E94 0000 		call __divsf3
 4411 16ce 9B01      		movw r18,r22
 4412 16d0 AC01      		movw r20,r24
 4413 16d2 C601      		movw r24,r12
 4414 16d4 B501      		movw r22,r10
 4415 16d6 0E94 0000 		call __addsf3
 4416 16da 20E0      		ldi r18,lo8(0x41980000)
 4417 16dc 30E0      		ldi r19,hi8(0x41980000)
 4418 16de 48E9      		ldi r20,hlo8(0x41980000)
 4419 16e0 51E4      		ldi r21,hhi8(0x41980000)
 4420 16e2 0E94 0000 		call __divsf3
 4421 16e6 9B01      		movw r18,r22
 4422 16e8 AC01      		movw r20,r24
 4423 16ea CF57      		subi r28,lo8(-385)
 4424 16ec DE4F      		sbci r29,hi8(-385)
 4425 16ee A881      		ld r26,Y
 4426 16f0 B981      		ldd r27,Y+1
 4427 16f2 C158      		subi r28,lo8(385)
 4428 16f4 D140      		sbci r29,hi8(385)
 4429 16f6 6D91      		ld r22,X+
 4430 16f8 7D91      		ld r23,X+
 4431 16fa 8D91      		ld r24,X+
 4432 16fc 9C91      		ld r25,X
 4433 16fe 0E94 0000 		call __addsf3
 4434 1702 CF57      		subi r28,lo8(-385)
 4435 1704 DE4F      		sbci r29,hi8(-385)
 4436 1706 E881      		ld r30,Y
 4437 1708 F981      		ldd r31,Y+1
 4438 170a C158      		subi r28,lo8(385)
 4439 170c D140      		sbci r29,hi8(385)
 4440 170e 6083      		st Z,r22
 4441 1710 7183      		std Z+1,r23
 4442 1712 8283      		std Z+2,r24
 4443 1714 9383      		std Z+3,r25
 4444               	.LM782:
 4445 1716 C201      		movw r24,r4
 4446 1718 B101      		movw r22,r2
 4447 171a A201      		movw r20,r4
 4448 171c 9101      		movw r18,r2
 4449 171e 0E94 0000 		call __mulsf3
 4450 1722 20E0      		ldi r18,lo8(0xc1a00000)
 4451 1724 30E0      		ldi r19,hi8(0xc1a00000)
 4452 1726 40EA      		ldi r20,hlo8(0xc1a00000)
 4453 1728 51EC      		ldi r21,hhi8(0xc1a00000)
 4454 172a 0E94 0000 		call __divsf3
 4455 172e 9B01      		movw r18,r22
 4456 1730 AC01      		movw r20,r24
 4457 1732 CB58      		subi r28,lo8(-373)
 4458 1734 DE4F      		sbci r29,hi8(-373)
 4459 1736 6881      		ld r22,Y
 4460 1738 7981      		ldd r23,Y+1
 4461 173a 8A81      		ldd r24,Y+2
 4462 173c 9B81      		ldd r25,Y+3
 4463 173e C557      		subi r28,lo8(373)
 4464 1740 D140      		sbci r29,hi8(373)
 4465 1742 0E94 0000 		call __addsf3
 4466 1746 20E0      		ldi r18,lo8(0x41980000)
 4467 1748 30E0      		ldi r19,hi8(0x41980000)
 4468 174a 48E9      		ldi r20,hlo8(0x41980000)
 4469 174c 51E4      		ldi r21,hhi8(0x41980000)
 4470 174e 0E94 0000 		call __divsf3
 4471 1752 9B01      		movw r18,r22
 4472 1754 AC01      		movw r20,r24
 4473 1756 CF57      		subi r28,lo8(-385)
 4474 1758 DE4F      		sbci r29,hi8(-385)
 4475 175a A881      		ld r26,Y
 4476 175c B981      		ldd r27,Y+1
 4477 175e C158      		subi r28,lo8(385)
 4478 1760 D140      		sbci r29,hi8(385)
 4479 1762 1496      		adiw r26,4
 4480 1764 6D91      		ld r22,X+
 4481 1766 7D91      		ld r23,X+
 4482 1768 8D91      		ld r24,X+
 4483 176a 9C91      		ld r25,X
 4484 176c 1797      		sbiw r26,4+3
 4485 176e 0E94 0000 		call __addsf3
 4486 1772 CF57      		subi r28,lo8(-385)
 4487 1774 DE4F      		sbci r29,hi8(-385)
 4488 1776 E881      		ld r30,Y
 4489 1778 F981      		ldd r31,Y+1
 4490 177a C158      		subi r28,lo8(385)
 4491 177c D140      		sbci r29,hi8(385)
 4492 177e 6483      		std Z+4,r22
 4493 1780 7583      		std Z+5,r23
 4494 1782 8683      		std Z+6,r24
 4495 1784 9783      		std Z+7,r25
 4496               	.LM783:
 4497 1786 C358      		subi r28,lo8(-381)
 4498 1788 DE4F      		sbci r29,hi8(-381)
 4499 178a 6881      		ld r22,Y
 4500 178c 7981      		ldd r23,Y+1
 4501 178e 8A81      		ldd r24,Y+2
 4502 1790 9B81      		ldd r25,Y+3
 4503 1792 CD57      		subi r28,lo8(381)
 4504 1794 D140      		sbci r29,hi8(381)
 4505 1796 9B01      		movw r18,r22
 4506 1798 AC01      		movw r20,r24
 4507 179a 0E94 0000 		call __mulsf3
 4508 179e 20E0      		ldi r18,lo8(0xc1a00000)
 4509 17a0 30E0      		ldi r19,hi8(0xc1a00000)
 4510 17a2 40EA      		ldi r20,hlo8(0xc1a00000)
 4511 17a4 51EC      		ldi r21,hhi8(0xc1a00000)
 4512 17a6 0E94 0000 		call __divsf3
 4513 17aa 9B01      		movw r18,r22
 4514 17ac AC01      		movw r20,r24
 4515 17ae C758      		subi r28,lo8(-377)
 4516 17b0 DE4F      		sbci r29,hi8(-377)
 4517 17b2 6881      		ld r22,Y
 4518 17b4 7981      		ldd r23,Y+1
 4519 17b6 8A81      		ldd r24,Y+2
 4520 17b8 9B81      		ldd r25,Y+3
 4521 17ba C957      		subi r28,lo8(377)
 4522 17bc D140      		sbci r29,hi8(377)
 4523 17be 0E94 0000 		call __addsf3
 4524 17c2 20E0      		ldi r18,lo8(0x41980000)
 4525 17c4 30E0      		ldi r19,hi8(0x41980000)
 4526 17c6 48E9      		ldi r20,hlo8(0x41980000)
 4527 17c8 51E4      		ldi r21,hhi8(0x41980000)
 4528 17ca 0E94 0000 		call __divsf3
 4529 17ce 9B01      		movw r18,r22
 4530 17d0 AC01      		movw r20,r24
 4531 17d2 CF57      		subi r28,lo8(-385)
 4532 17d4 DE4F      		sbci r29,hi8(-385)
 4533 17d6 A881      		ld r26,Y
 4534 17d8 B981      		ldd r27,Y+1
 4535 17da C158      		subi r28,lo8(385)
 4536 17dc D140      		sbci r29,hi8(385)
 4537 17de 1896      		adiw r26,8
 4538 17e0 6D91      		ld r22,X+
 4539 17e2 7D91      		ld r23,X+
 4540 17e4 8D91      		ld r24,X+
 4541 17e6 9C91      		ld r25,X
 4542 17e8 1B97      		sbiw r26,8+3
 4543 17ea 0E94 0000 		call __addsf3
 4544 17ee CF57      		subi r28,lo8(-385)
 4545 17f0 DE4F      		sbci r29,hi8(-385)
 4546 17f2 E881      		ld r30,Y
 4547 17f4 F981      		ldd r31,Y+1
 4548 17f6 C158      		subi r28,lo8(385)
 4549 17f8 D140      		sbci r29,hi8(385)
 4550 17fa 6087      		std Z+8,r22
 4551 17fc 7187      		std Z+9,r23
 4552 17fe 8287      		std Z+10,r24
 4553 1800 9387      		std Z+11,r25
 4554               	.LBE680:
 4555               	.LM784:
 4556 1802 CF01      		movw r24,r30
 4557               	/* epilogue start */
 4558 1804 CE57      		subi r28,lo8(-(386))
 4559 1806 DE4F      		sbci r29,hi8(-(386))
 4560 1808 0FB6      		in __tmp_reg__,__SREG__
 4561 180a F894      		cli
 4562 180c DEBF      		out __SP_H__,r29
 4563 180e 0FBE      		out __SREG__,__tmp_reg__
 4564 1810 CDBF      		out __SP_L__,r28
 4565 1812 CF91      		pop r28
 4566 1814 DF91      		pop r29
 4567 1816 1F91      		pop r17
 4568 1818 0F91      		pop r16
 4569 181a FF90      		pop r15
 4570 181c EF90      		pop r14
 4571 181e DF90      		pop r13
 4572 1820 CF90      		pop r12
 4573 1822 BF90      		pop r11
 4574 1824 AF90      		pop r10
 4575 1826 9F90      		pop r9
 4576 1828 8F90      		pop r8
 4577 182a 7F90      		pop r7
 4578 182c 6F90      		pop r6
 4579 182e 5F90      		pop r5
 4580 1830 4F90      		pop r4
 4581 1832 3F90      		pop r3
 4582 1834 2F90      		pop r2
 4583 1836 0895      		ret
 4584               	.LFE147:
 4586               	.global	EVENT_USB_Device_Connect
 4588               	EVENT_USB_Device_Connect:
 4589               	.LFB150:
 4590               	.LM785:
 4591               	/* prologue: function */
 4592               	/* frame size = 0 */
 4593               	/* epilogue start */
 4594               	.LM786:
 4595 1838 0895      		ret
 4596               	.LFE150:
 4598               	.global	EVENT_USB_Device_Disconnect
 4600               	EVENT_USB_Device_Disconnect:
 4601               	.LFB151:
 4602               	.LM787:
 4603               	/* prologue: function */
 4604               	/* frame size = 0 */
 4605               	/* epilogue start */
 4606               	.LM788:
 4607 183a 0895      		ret
 4608               	.LFE151:
 4610               	.global	_Z8init_allv
 4612               	_Z8init_allv:
 4613               	.LFB156:
 4614               	.LM789:
 4615               	/* prologue: function */
 4616               	/* frame size = 0 */
 4617               	.LM790:
 4618 183c 81E0      		ldi r24,lo8(1)
 4619 183e 8AB9      		out 42-32,r24
 4620               	.LM791:
 4621 1840 83E0      		ldi r24,lo8(3)
 4622 1842 8BB9      		out 43-32,r24
 4623               	.LM792:
 4624 1844 0E94 0000 		call _Z7i2cInitv
 4625               	.LM793:
 4626 1848 0E94 0000 		call _Z14compass_configv
 4627               	.LBB684:
 4628               	.LBB685:
 4629               	.LM794:
 4630 184c 0E94 0000 		call _Z9gyro_initv
 4631               	/* epilogue start */
 4632               	.LBE685:
 4633               	.LBE684:
 4634               	.LM795:
 4635 1850 0895      		ret
 4636               	.LFE156:
 4638               	.global	_Z15init_interruptsv
 4640               	_Z15init_interruptsv:
 4641               	.LFB157:
 4642               	.LM796:
 4643               	/* prologue: function */
 4644               	/* frame size = 0 */
 4645               	.LM797:
 4646 1852 AFE6      		ldi r26,lo8(111)
 4647 1854 B0E0      		ldi r27,hi8(111)
 4648 1856 8C91      		ld r24,X
 4649 1858 8E7F      		andi r24,lo8(-2)
 4650 185a 8C93      		st X,r24
 4651               	.LM798:
 4652 185c E0E8      		ldi r30,lo8(128)
 4653 185e F0E0      		ldi r31,hi8(128)
 4654 1860 8081      		ld r24,Z
 4655 1862 8C7F      		andi r24,lo8(-4)
 4656 1864 8083      		st Z,r24
 4657               	.LM799:
 4658 1866 E1E8      		ldi r30,lo8(129)
 4659 1868 F0E0      		ldi r31,hi8(129)
 4660 186a 8081      		ld r24,Z
 4661 186c 877E      		andi r24,lo8(-25)
 4662 186e 8083      		st Z,r24
 4663               	.LM800:
 4664 1870 8C91      		ld r24,X
 4665 1872 8D7F      		andi r24,lo8(-3)
 4666 1874 8C93      		st X,r24
 4667               	.LM801:
 4668 1876 8081      		ld r24,Z
 4669 1878 8B7F      		andi r24,lo8(-5)
 4670 187a 8083      		st Z,r24
 4671               	.LM802:
 4672 187c 8081      		ld r24,Z
 4673 187e 8260      		ori r24,lo8(2)
 4674 1880 8083      		st Z,r24
 4675               	.LM803:
 4676 1882 8081      		ld r24,Z
 4677 1884 8E7F      		andi r24,lo8(-2)
 4678 1886 8083      		st Z,r24
 4679               	.LM804:
 4680 1888 8091 0000 		lds r24,tcnt1
 4681 188c 9091 0000 		lds r25,(tcnt1)+1
 4682 1890 9093 8500 		sts (132)+1,r25
 4683 1894 8093 8400 		sts 132,r24
 4684               	.LM805:
 4685 1898 8C91      		ld r24,X
 4686 189a 8160      		ori r24,lo8(1)
 4687 189c 8C93      		st X,r24
 4688               	/* epilogue start */
 4689               	.LM806:
 4690 189e 0895      		ret
 4691               	.LFE157:
 4693               		.data
 4694               	.LC0:
 4695 0000 4D61 676E 		.string	"Magnetometer X axis = %4d \n"
 4695      6574 6F6D 
 4695      6574 6572 
 4695      2058 2061 
 4695      7869 7320 
 4696               	.LC1:
 4697 001c 4D61 676E 		.string	"Magnetometer Y axis = %4d \n"
 4697      6574 6F6D 
 4697      6574 6572 
 4697      2059 2061 
 4697      7869 7320 
 4698               	.LC2:
 4699 0038 4D61 676E 		.string	"Magnetometer Z axis = %4d \n"
 4699      6574 6F6D 
 4699      6574 6572 
 4699      205A 2061 
 4699      7869 7320 
 4700               	.LC3:
 4701 0054 0A0D 00   		.string	"\n\r"
 4702               		.text
 4703               	.global	_Z13print_hmc58836__file
 4705               	_Z13print_hmc58836__file:
 4706               	.LFB128:
 4707               	.LM807:
 4708 18a0 CF92      		push r12
 4709 18a2 DF92      		push r13
 4710 18a4 EF92      		push r14
 4711 18a6 FF92      		push r15
 4712 18a8 0F93      		push r16
 4713 18aa 1F93      		push r17
 4714 18ac DF93      		push r29
 4715 18ae CF93      		push r28
 4716 18b0 CDB7      		in r28,__SP_L__
 4717 18b2 DEB7      		in r29,__SP_H__
 4718 18b4 2E97      		sbiw r28,14
 4719 18b6 0FB6      		in __tmp_reg__,__SREG__
 4720 18b8 F894      		cli
 4721 18ba DEBF      		out __SP_H__,r29
 4722 18bc 0FBE      		out __SREG__,__tmp_reg__
 4723 18be CDBF      		out __SP_L__,r28
 4724               	/* prologue: function */
 4725               	/* frame size = 14 */
 4726 18c0 C982      		std Y+1,r12
 4727 18c2 DA82      		std Y+2,r13
 4728 18c4 EB82      		std Y+3,r14
 4729 18c6 FC82      		std Y+4,r15
 4730 18c8 0D83      		std Y+5,r16
 4731 18ca 1E83      		std Y+6,r17
 4732 18cc 2F83      		std Y+7,r18
 4733 18ce 3887      		std Y+8,r19
 4734 18d0 4987      		std Y+9,r20
 4735 18d2 5A87      		std Y+10,r21
 4736 18d4 6B87      		std Y+11,r22
 4737 18d6 7C87      		std Y+12,r23
 4738 18d8 8D87      		std Y+13,r24
 4739 18da 9E87      		std Y+14,r25
 4740               	.LM808:
 4741 18dc 0E94 0000 		call _Z19magnetometer_valuesv
 4742               	.LM809:
 4743 18e0 00D0      		rcall .
 4744 18e2 00D0      		rcall .
 4745 18e4 00D0      		rcall .
 4746 18e6 EDB7      		in r30,__SP_L__
 4747 18e8 FEB7      		in r31,__SP_H__
 4748 18ea 3196      		adiw r30,1
 4749 18ec 8E01      		movw r16,r28
 4750 18ee 0F5F      		subi r16,lo8(-(1))
 4751 18f0 1F4F      		sbci r17,hi8(-(1))
 4752 18f2 ADB7      		in r26,__SP_L__
 4753 18f4 BEB7      		in r27,__SP_H__
 4754 18f6 1296      		adiw r26,1+1
 4755 18f8 1C93      		st X,r17
 4756 18fa 0E93      		st -X,r16
 4757 18fc 1197      		sbiw r26,1
 4758 18fe 80E0      		ldi r24,lo8(.LC0)
 4759 1900 90E0      		ldi r25,hi8(.LC0)
 4760 1902 9383      		std Z+3,r25
 4761 1904 8283      		std Z+2,r24
 4762 1906 8091 0000 		lds r24,X_MAG
 4763 190a 9091 0000 		lds r25,(X_MAG)+1
 4764 190e 9583      		std Z+5,r25
 4765 1910 8483      		std Z+4,r24
 4766 1912 0E94 0000 		call fprintf
 4767               	.LM810:
 4768 1916 EDB7      		in r30,__SP_L__
 4769 1918 FEB7      		in r31,__SP_H__
 4770 191a 3196      		adiw r30,1
 4771 191c ADB7      		in r26,__SP_L__
 4772 191e BEB7      		in r27,__SP_H__
 4773 1920 1296      		adiw r26,1+1
 4774 1922 1C93      		st X,r17
 4775 1924 0E93      		st -X,r16
 4776 1926 1197      		sbiw r26,1
 4777 1928 80E0      		ldi r24,lo8(.LC1)
 4778 192a 90E0      		ldi r25,hi8(.LC1)
 4779 192c 9383      		std Z+3,r25
 4780 192e 8283      		std Z+2,r24
 4781 1930 8091 0000 		lds r24,Y_MAG
 4782 1934 9091 0000 		lds r25,(Y_MAG)+1
 4783 1938 9583      		std Z+5,r25
 4784 193a 8483      		std Z+4,r24
 4785 193c 0E94 0000 		call fprintf
 4786               	.LM811:
 4787 1940 EDB7      		in r30,__SP_L__
 4788 1942 FEB7      		in r31,__SP_H__
 4789 1944 3196      		adiw r30,1
 4790 1946 ADB7      		in r26,__SP_L__
 4791 1948 BEB7      		in r27,__SP_H__
 4792 194a 1296      		adiw r26,1+1
 4793 194c 1C93      		st X,r17
 4794 194e 0E93      		st -X,r16
 4795 1950 1197      		sbiw r26,1
 4796 1952 80E0      		ldi r24,lo8(.LC2)
 4797 1954 90E0      		ldi r25,hi8(.LC2)
 4798 1956 9383      		std Z+3,r25
 4799 1958 8283      		std Z+2,r24
 4800 195a 8091 0000 		lds r24,Z_MAG
 4801 195e 9091 0000 		lds r25,(Z_MAG)+1
 4802 1962 9583      		std Z+5,r25
 4803 1964 8483      		std Z+4,r24
 4804 1966 0E94 0000 		call fprintf
 4805               	.LM812:
 4806 196a 0F90      		pop __tmp_reg__
 4807 196c 0F90      		pop __tmp_reg__
 4808 196e EDB7      		in r30,__SP_L__
 4809 1970 FEB7      		in r31,__SP_H__
 4810 1972 1283      		std Z+2,r17
 4811 1974 0183      		std Z+1,r16
 4812 1976 80E0      		ldi r24,lo8(.LC3)
 4813 1978 90E0      		ldi r25,hi8(.LC3)
 4814 197a 9483      		std Z+4,r25
 4815 197c 8383      		std Z+3,r24
 4816 197e 0E94 0000 		call fprintf
 4817               	.LM813:
 4818 1982 0F90      		pop __tmp_reg__
 4819 1984 0F90      		pop __tmp_reg__
 4820 1986 0F90      		pop __tmp_reg__
 4821 1988 0F90      		pop __tmp_reg__
 4822 198a 84E1      		ldi r24,lo8(20)
 4823 198c 90E0      		ldi r25,hi8(20)
 4824 198e 0E94 0000 		call _Z8delay_msj
 4825               	/* epilogue start */
 4826               	.LM814:
 4827 1992 2E96      		adiw r28,14
 4828 1994 0FB6      		in __tmp_reg__,__SREG__
 4829 1996 F894      		cli
 4830 1998 DEBF      		out __SP_H__,r29
 4831 199a 0FBE      		out __SREG__,__tmp_reg__
 4832 199c CDBF      		out __SP_L__,r28
 4833 199e CF91      		pop r28
 4834 19a0 DF91      		pop r29
 4835 19a2 1F91      		pop r17
 4836 19a4 0F91      		pop r16
 4837 19a6 FF90      		pop r15
 4838 19a8 EF90      		pop r14
 4839 19aa DF90      		pop r13
 4840 19ac CF90      		pop r12
 4841 19ae 0895      		ret
 4842               	.LFE128:
 4844               		.data
 4845               	.LC4:
 4846 0057 4163 6365 		.string	"Accelerometer Y axis = %4d \n"
 4846      6C65 726F 
 4846      6D65 7465 
 4846      7220 5920 
 4846      6178 6973 
 4847               	.LC5:
 4848 0074 4163 6365 		.string	"Accelerometer Z axis = %4d \n"
 4848      6C65 726F 
 4848      6D65 7465 
 4848      7220 5A20 
 4848      6178 6973 
 4849               		.text
 4850               	.global	_Z13print_adxl3456__file
 4852               	_Z13print_adxl3456__file:
 4853               	.LFB123:
 4854               	.LM815:
 4855 19b0 CF92      		push r12
 4856 19b2 DF92      		push r13
 4857 19b4 EF92      		push r14
 4858 19b6 FF92      		push r15
 4859 19b8 0F93      		push r16
 4860 19ba 1F93      		push r17
 4861 19bc DF93      		push r29
 4862 19be CF93      		push r28
 4863 19c0 CDB7      		in r28,__SP_L__
 4864 19c2 DEB7      		in r29,__SP_H__
 4865 19c4 2E97      		sbiw r28,14
 4866 19c6 0FB6      		in __tmp_reg__,__SREG__
 4867 19c8 F894      		cli
 4868 19ca DEBF      		out __SP_H__,r29
 4869 19cc 0FBE      		out __SREG__,__tmp_reg__
 4870 19ce CDBF      		out __SP_L__,r28
 4871               	/* prologue: function */
 4872               	/* frame size = 14 */
 4873 19d0 C982      		std Y+1,r12
 4874 19d2 DA82      		std Y+2,r13
 4875 19d4 EB82      		std Y+3,r14
 4876 19d6 FC82      		std Y+4,r15
 4877 19d8 0D83      		std Y+5,r16
 4878 19da 1E83      		std Y+6,r17
 4879 19dc 2F83      		std Y+7,r18
 4880 19de 3887      		std Y+8,r19
 4881 19e0 4987      		std Y+9,r20
 4882 19e2 5A87      		std Y+10,r21
 4883 19e4 6B87      		std Y+11,r22
 4884 19e6 7C87      		std Y+12,r23
 4885 19e8 8D87      		std Y+13,r24
 4886 19ea 9E87      		std Y+14,r25
 4887               	.LM816:
 4888 19ec 0E94 0000 		call _Z7y_accelv
 4889 19f0 00D0      		rcall .
 4890 19f2 00D0      		rcall .
 4891 19f4 00D0      		rcall .
 4892 19f6 EDB7      		in r30,__SP_L__
 4893 19f8 FEB7      		in r31,__SP_H__
 4894 19fa 3196      		adiw r30,1
 4895 19fc 8E01      		movw r16,r28
 4896 19fe 0F5F      		subi r16,lo8(-(1))
 4897 1a00 1F4F      		sbci r17,hi8(-(1))
 4898 1a02 ADB7      		in r26,__SP_L__
 4899 1a04 BEB7      		in r27,__SP_H__
 4900 1a06 1296      		adiw r26,1+1
 4901 1a08 1C93      		st X,r17
 4902 1a0a 0E93      		st -X,r16
 4903 1a0c 1197      		sbiw r26,1
 4904 1a0e 20E0      		ldi r18,lo8(.LC4)
 4905 1a10 30E0      		ldi r19,hi8(.LC4)
 4906 1a12 3383      		std Z+3,r19
 4907 1a14 2283      		std Z+2,r18
 4908 1a16 9583      		std Z+5,r25
 4909 1a18 8483      		std Z+4,r24
 4910 1a1a 0E94 0000 		call fprintf
 4911               	.LM817:
 4912 1a1e EDB7      		in r30,__SP_L__
 4913 1a20 FEB7      		in r31,__SP_H__
 4914 1a22 3696      		adiw r30,6
 4915 1a24 0FB6      		in __tmp_reg__,__SREG__
 4916 1a26 F894      		cli
 4917 1a28 FEBF      		out __SP_H__,r31
 4918 1a2a 0FBE      		out __SREG__,__tmp_reg__
 4919 1a2c EDBF      		out __SP_L__,r30
 4920 1a2e 0E94 0000 		call _Z7z_accelv
 4921 1a32 00D0      		rcall .
 4922 1a34 00D0      		rcall .
 4923 1a36 00D0      		rcall .
 4924 1a38 EDB7      		in r30,__SP_L__
 4925 1a3a FEB7      		in r31,__SP_H__
 4926 1a3c 3196      		adiw r30,1
 4927 1a3e ADB7      		in r26,__SP_L__
 4928 1a40 BEB7      		in r27,__SP_H__
 4929 1a42 1296      		adiw r26,1+1
 4930 1a44 1C93      		st X,r17
 4931 1a46 0E93      		st -X,r16
 4932 1a48 1197      		sbiw r26,1
 4933 1a4a 20E0      		ldi r18,lo8(.LC5)
 4934 1a4c 30E0      		ldi r19,hi8(.LC5)
 4935 1a4e 3383      		std Z+3,r19
 4936 1a50 2283      		std Z+2,r18
 4937 1a52 9583      		std Z+5,r25
 4938 1a54 8483      		std Z+4,r24
 4939 1a56 0E94 0000 		call fprintf
 4940               	.LM818:
 4941 1a5a 0F90      		pop __tmp_reg__
 4942 1a5c 0F90      		pop __tmp_reg__
 4943 1a5e EDB7      		in r30,__SP_L__
 4944 1a60 FEB7      		in r31,__SP_H__
 4945 1a62 1283      		std Z+2,r17
 4946 1a64 0183      		std Z+1,r16
 4947 1a66 80E0      		ldi r24,lo8(.LC3)
 4948 1a68 90E0      		ldi r25,hi8(.LC3)
 4949 1a6a 9483      		std Z+4,r25
 4950 1a6c 8383      		std Z+3,r24
 4951 1a6e 0E94 0000 		call fprintf
 4952               	.LM819:
 4953 1a72 0F90      		pop __tmp_reg__
 4954 1a74 0F90      		pop __tmp_reg__
 4955 1a76 0F90      		pop __tmp_reg__
 4956 1a78 0F90      		pop __tmp_reg__
 4957 1a7a 84E1      		ldi r24,lo8(20)
 4958 1a7c 90E0      		ldi r25,hi8(20)
 4959 1a7e 0E94 0000 		call _Z8delay_msj
 4960               	/* epilogue start */
 4961               	.LM820:
 4962 1a82 2E96      		adiw r28,14
 4963 1a84 0FB6      		in __tmp_reg__,__SREG__
 4964 1a86 F894      		cli
 4965 1a88 DEBF      		out __SP_H__,r29
 4966 1a8a 0FBE      		out __SREG__,__tmp_reg__
 4967 1a8c CDBF      		out __SP_L__,r28
 4968 1a8e CF91      		pop r28
 4969 1a90 DF91      		pop r29
 4970 1a92 1F91      		pop r17
 4971 1a94 0F91      		pop r16
 4972 1a96 FF90      		pop r15
 4973 1a98 EF90      		pop r14
 4974 1a9a DF90      		pop r13
 4975 1a9c CF90      		pop r12
 4976 1a9e 0895      		ret
 4977               	.LFE123:
 4979               		.data
 4980               	.LC6:
 4981 0091 4779 726F 		.string	"Gyroscope X axis = %4d \n"
 4981      7363 6F70 
 4981      6520 5820 
 4981      6178 6973 
 4981      203D 2025 
 4982               	.LC7:
 4983 00aa 4779 726F 		.string	"Gyroscope Y axis = %4d \n"
 4983      7363 6F70 
 4983      6520 5920 
 4983      6178 6973 
 4983      203D 2025 
 4984               	.LC8:
 4985 00c3 4779 726F 		.string	"Gyroscope Z axis = %4d \n"
 4985      7363 6F70 
 4985      6520 5A20 
 4985      6178 6973 
 4985      203D 2025 
 4986               		.text
 4987               	.global	_Z13print_itg32056__file
 4989               	_Z13print_itg32056__file:
 4990               	.LFB118:
 4991               	.LM821:
 4992 1aa0 CF92      		push r12
 4993 1aa2 DF92      		push r13
 4994 1aa4 EF92      		push r14
 4995 1aa6 FF92      		push r15
 4996 1aa8 0F93      		push r16
 4997 1aaa 1F93      		push r17
 4998 1aac DF93      		push r29
 4999 1aae CF93      		push r28
 5000 1ab0 CDB7      		in r28,__SP_L__
 5001 1ab2 DEB7      		in r29,__SP_H__
 5002 1ab4 2E97      		sbiw r28,14
 5003 1ab6 0FB6      		in __tmp_reg__,__SREG__
 5004 1ab8 F894      		cli
 5005 1aba DEBF      		out __SP_H__,r29
 5006 1abc 0FBE      		out __SREG__,__tmp_reg__
 5007 1abe CDBF      		out __SP_L__,r28
 5008               	/* prologue: function */
 5009               	/* frame size = 14 */
 5010 1ac0 C982      		std Y+1,r12
 5011 1ac2 DA82      		std Y+2,r13
 5012 1ac4 EB82      		std Y+3,r14
 5013 1ac6 FC82      		std Y+4,r15
 5014 1ac8 0D83      		std Y+5,r16
 5015 1aca 1E83      		std Y+6,r17
 5016 1acc 2F83      		std Y+7,r18
 5017 1ace 3887      		std Y+8,r19
 5018 1ad0 4987      		std Y+9,r20
 5019 1ad2 5A87      		std Y+10,r21
 5020 1ad4 6B87      		std Y+11,r22
 5021 1ad6 7C87      		std Y+12,r23
 5022 1ad8 8D87      		std Y+13,r24
 5023 1ada 9E87      		std Y+14,r25
 5024               	.LM822:
 5025 1adc 0E94 0000 		call _Z6x_gyrov
 5026 1ae0 00D0      		rcall .
 5027 1ae2 00D0      		rcall .
 5028 1ae4 00D0      		rcall .
 5029 1ae6 EDB7      		in r30,__SP_L__
 5030 1ae8 FEB7      		in r31,__SP_H__
 5031 1aea 3196      		adiw r30,1
 5032 1aec 8E01      		movw r16,r28
 5033 1aee 0F5F      		subi r16,lo8(-(1))
 5034 1af0 1F4F      		sbci r17,hi8(-(1))
 5035 1af2 ADB7      		in r26,__SP_L__
 5036 1af4 BEB7      		in r27,__SP_H__
 5037 1af6 1296      		adiw r26,1+1
 5038 1af8 1C93      		st X,r17
 5039 1afa 0E93      		st -X,r16
 5040 1afc 1197      		sbiw r26,1
 5041 1afe 20E0      		ldi r18,lo8(.LC6)
 5042 1b00 30E0      		ldi r19,hi8(.LC6)
 5043 1b02 3383      		std Z+3,r19
 5044 1b04 2283      		std Z+2,r18
 5045 1b06 8483      		std Z+4,r24
 5046 1b08 1582      		std Z+5,__zero_reg__
 5047 1b0a 0E94 0000 		call fprintf
 5048               	.LM823:
 5049 1b0e EDB7      		in r30,__SP_L__
 5050 1b10 FEB7      		in r31,__SP_H__
 5051 1b12 3696      		adiw r30,6
 5052 1b14 0FB6      		in __tmp_reg__,__SREG__
 5053 1b16 F894      		cli
 5054 1b18 FEBF      		out __SP_H__,r31
 5055 1b1a 0FBE      		out __SREG__,__tmp_reg__
 5056 1b1c EDBF      		out __SP_L__,r30
 5057 1b1e 0E94 0000 		call _Z6y_gyrov
 5058 1b22 00D0      		rcall .
 5059 1b24 00D0      		rcall .
 5060 1b26 00D0      		rcall .
 5061 1b28 EDB7      		in r30,__SP_L__
 5062 1b2a FEB7      		in r31,__SP_H__
 5063 1b2c 3196      		adiw r30,1
 5064 1b2e ADB7      		in r26,__SP_L__
 5065 1b30 BEB7      		in r27,__SP_H__
 5066 1b32 1296      		adiw r26,1+1
 5067 1b34 1C93      		st X,r17
 5068 1b36 0E93      		st -X,r16
 5069 1b38 1197      		sbiw r26,1
 5070 1b3a 20E0      		ldi r18,lo8(.LC7)
 5071 1b3c 30E0      		ldi r19,hi8(.LC7)
 5072 1b3e 3383      		std Z+3,r19
 5073 1b40 2283      		std Z+2,r18
 5074 1b42 8483      		std Z+4,r24
 5075 1b44 1582      		std Z+5,__zero_reg__
 5076 1b46 0E94 0000 		call fprintf
 5077               	.LM824:
 5078 1b4a EDB7      		in r30,__SP_L__
 5079 1b4c FEB7      		in r31,__SP_H__
 5080 1b4e 3696      		adiw r30,6
 5081 1b50 0FB6      		in __tmp_reg__,__SREG__
 5082 1b52 F894      		cli
 5083 1b54 FEBF      		out __SP_H__,r31
 5084 1b56 0FBE      		out __SREG__,__tmp_reg__
 5085 1b58 EDBF      		out __SP_L__,r30
 5086 1b5a 0E94 0000 		call _Z6z_gyrov
 5087 1b5e 00D0      		rcall .
 5088 1b60 00D0      		rcall .
 5089 1b62 00D0      		rcall .
 5090 1b64 EDB7      		in r30,__SP_L__
 5091 1b66 FEB7      		in r31,__SP_H__
 5092 1b68 3196      		adiw r30,1
 5093 1b6a ADB7      		in r26,__SP_L__
 5094 1b6c BEB7      		in r27,__SP_H__
 5095 1b6e 1296      		adiw r26,1+1
 5096 1b70 1C93      		st X,r17
 5097 1b72 0E93      		st -X,r16
 5098 1b74 1197      		sbiw r26,1
 5099 1b76 20E0      		ldi r18,lo8(.LC8)
 5100 1b78 30E0      		ldi r19,hi8(.LC8)
 5101 1b7a 3383      		std Z+3,r19
 5102 1b7c 2283      		std Z+2,r18
 5103 1b7e 8483      		std Z+4,r24
 5104 1b80 1582      		std Z+5,__zero_reg__
 5105 1b82 0E94 0000 		call fprintf
 5106               	.LM825:
 5107 1b86 0F90      		pop __tmp_reg__
 5108 1b88 0F90      		pop __tmp_reg__
 5109 1b8a EDB7      		in r30,__SP_L__
 5110 1b8c FEB7      		in r31,__SP_H__
 5111 1b8e 1283      		std Z+2,r17
 5112 1b90 0183      		std Z+1,r16
 5113 1b92 80E0      		ldi r24,lo8(.LC3)
 5114 1b94 90E0      		ldi r25,hi8(.LC3)
 5115 1b96 9483      		std Z+4,r25
 5116 1b98 8383      		std Z+3,r24
 5117 1b9a 0E94 0000 		call fprintf
 5118               	.LM826:
 5119 1b9e 0F90      		pop __tmp_reg__
 5120 1ba0 0F90      		pop __tmp_reg__
 5121 1ba2 0F90      		pop __tmp_reg__
 5122 1ba4 0F90      		pop __tmp_reg__
 5123 1ba6 84E1      		ldi r24,lo8(20)
 5124 1ba8 90E0      		ldi r25,hi8(20)
 5125 1baa 0E94 0000 		call _Z8delay_msj
 5126               	/* epilogue start */
 5127               	.LM827:
 5128 1bae 2E96      		adiw r28,14
 5129 1bb0 0FB6      		in __tmp_reg__,__SREG__
 5130 1bb2 F894      		cli
 5131 1bb4 DEBF      		out __SP_H__,r29
 5132 1bb6 0FBE      		out __SREG__,__tmp_reg__
 5133 1bb8 CDBF      		out __SP_L__,r28
 5134 1bba CF91      		pop r28
 5135 1bbc DF91      		pop r29
 5136 1bbe 1F91      		pop r17
 5137 1bc0 0F91      		pop r16
 5138 1bc2 FF90      		pop r15
 5139 1bc4 EF90      		pop r14
 5140 1bc6 DF90      		pop r13
 5141 1bc8 CF90      		pop r12
 5142 1bca 0895      		ret
 5143               	.LFE118:
 5145               	.global	EVENT_USB_Device_ControlRequest
 5147               	EVENT_USB_Device_ControlRequest:
 5148               	.LFB153:
 5149               	.LM828:
 5150               	/* prologue: function */
 5151               	/* frame size = 0 */
 5152               	.LM829:
 5153 1bcc 80E0      		ldi r24,lo8(VirtualSerial_CDC_Interface)
 5154 1bce 90E0      		ldi r25,hi8(VirtualSerial_CDC_Interface)
 5155 1bd0 0E94 0000 		call CDC_Device_ProcessControlRequest
 5156               	/* epilogue start */
 5157               	.LM830:
 5158 1bd4 0895      		ret
 5159               	.LFE153:
 5161               	.global	EVENT_USB_Device_ConfigurationChanged
 5163               	EVENT_USB_Device_ConfigurationChanged:
 5164               	.LFB152:
 5165               	.LM831:
 5166               	/* prologue: function */
 5167               	/* frame size = 0 */
 5168               	.LBB686:
 5169               	.LM832:
 5170 1bd6 80E0      		ldi r24,lo8(VirtualSerial_CDC_Interface)
 5171 1bd8 90E0      		ldi r25,hi8(VirtualSerial_CDC_Interface)
 5172 1bda 0E94 0000 		call CDC_Device_ConfigureEndpoints
 5173               	/* epilogue start */
 5174               	.LBE686:
 5175               	.LM833:
 5176 1bde 0895      		ret
 5177               	.LFE152:
 5179               	.global	_Z13SetupHardwarev
 5181               	_Z13SetupHardwarev:
 5182               	.LFB149:
 5183               	.LM834:
 5184               	/* prologue: function */
 5185               	/* frame size = 0 */
 5186               	.LBB687:
 5187               	.LM835:
 5188 1be0 84B7      		in r24,84-32
 5189 1be2 877F      		andi r24,lo8(-9)
 5190 1be4 84BF      		out 84-32,r24
 5191               	.LM836:
 5192 1be6 88E1      		ldi r24,lo8(24)
 5193               	/* #APP */
 5194               	 ;  167 "main.cpp" 1
 5195 1be8 0FB6      		in __tmp_reg__, __SREG__
 5196 1bea F894      		cli
 5197 1bec 8093 6000 		sts 96, r24
 5198 1bf0 1092 6000 		sts 96, __zero_reg__
 5199 1bf4 0FBE      		out __SREG__,__tmp_reg__
 5200               		
 5201               	 ;  0 "" 2
 5202               	/* #NOAPP */
 5203               	.LBB688:
 5204               	.LM837:
 5205 1bf6 90E0      		ldi r25,lo8(0)
 5206 1bf8 80E8      		ldi r24,lo8(-128)
 5207               	/* #APP */
 5208               	 ;  170 "main.cpp" 1
 5209 1bfa 0FB6      		in __tmp_reg__,__SREG__
 5210 1bfc F894      		cli
 5211 1bfe 8093 6100 		sts 97, r24
 5212 1c02 9093 6100 		sts 97, r25
 5213 1c06 0FBE      		out __SREG__, __tmp_reg__
 5214               	 ;  0 "" 2
 5215               	/* #NOAPP */
 5216 1c08 80E0      		ldi r24,lo8(0)
 5217 1c0a 90E0      		ldi r25,hi8(0)
 5218               	.L113:
 5219               	.LBE688:
 5220               	.LBB689:
 5221               	.LM838:
 5222 1c0c FC01      		movw r30,r24
 5223 1c0e E050      		subi r30,lo8(-(buffer))
 5224 1c10 F040      		sbci r31,hi8(-(buffer))
 5225 1c12 1082      		st Z,__zero_reg__
 5226 1c14 0196      		adiw r24,1
 5227               	.LM839:
 5228 1c16 8031      		cpi r24,16
 5229 1c18 9105      		cpc r25,__zero_reg__
 5230 1c1a 01F4      		brne .L113
 5231               	.LBE689:
 5232               	.LM840:
 5233 1c1c 0E94 0000 		call USB_Init
 5234               	/* epilogue start */
 5235               	.LBE687:
 5236               	.LM841:
 5237 1c20 0895      		ret
 5238               	.LFE149:
 5240               	.global	_Z16vector_normalizeP6vector
 5242               	_Z16vector_normalizeP6vector:
 5243               	.LFB138:
 5244               	.LM842:
 5245               	.LVL213:
 5246 1c22 2F92      		push r2
 5247 1c24 3F92      		push r3
 5248 1c26 4F92      		push r4
 5249 1c28 5F92      		push r5
 5250 1c2a 6F92      		push r6
 5251 1c2c 7F92      		push r7
 5252 1c2e 8F92      		push r8
 5253 1c30 9F92      		push r9
 5254 1c32 AF92      		push r10
 5255 1c34 BF92      		push r11
 5256 1c36 CF92      		push r12
 5257 1c38 DF92      		push r13
 5258 1c3a EF92      		push r14
 5259 1c3c FF92      		push r15
 5260 1c3e 0F93      		push r16
 5261 1c40 1F93      		push r17
 5262 1c42 CF93      		push r28
 5263 1c44 DF93      		push r29
 5264               	/* prologue: function */
 5265               	/* frame size = 0 */
 5266 1c46 EC01      		movw r28,r24
 5267               	.LBB690:
 5268               	.LBB691:
 5269               	.LBB692:
 5270               	.LM843:
 5271 1c48 A880      		ld r10,Y
 5272 1c4a B980      		ldd r11,Y+1
 5273 1c4c CA80      		ldd r12,Y+2
 5274 1c4e DB80      		ldd r13,Y+3
 5275 1c50 6C80      		ldd r6,Y+4
 5276 1c52 7D80      		ldd r7,Y+5
 5277 1c54 8E80      		ldd r8,Y+6
 5278 1c56 9F80      		ldd r9,Y+7
 5279 1c58 2884      		ldd r2,Y+8
 5280 1c5a 3984      		ldd r3,Y+9
 5281 1c5c 4A84      		ldd r4,Y+10
 5282 1c5e 5B84      		ldd r5,Y+11
 5283               	.LBE692:
 5284               	.LBE691:
 5285               	.LM844:
 5286 1c60 C601      		movw r24,r12
 5287 1c62 B501      		movw r22,r10
 5288 1c64 A601      		movw r20,r12
 5289 1c66 9501      		movw r18,r10
 5290 1c68 0E94 0000 		call __mulsf3
 5291               	.LVL214:
 5292 1c6c 7B01      		movw r14,r22
 5293 1c6e 8C01      		movw r16,r24
 5294 1c70 C401      		movw r24,r8
 5295 1c72 B301      		movw r22,r6
 5296 1c74 A401      		movw r20,r8
 5297 1c76 9301      		movw r18,r6
 5298 1c78 0E94 0000 		call __mulsf3
 5299 1c7c 9B01      		movw r18,r22
 5300 1c7e AC01      		movw r20,r24
 5301 1c80 C801      		movw r24,r16
 5302 1c82 B701      		movw r22,r14
 5303 1c84 0E94 0000 		call __addsf3
 5304 1c88 7B01      		movw r14,r22
 5305 1c8a 8C01      		movw r16,r24
 5306 1c8c C201      		movw r24,r4
 5307 1c8e B101      		movw r22,r2
 5308 1c90 A201      		movw r20,r4
 5309 1c92 9101      		movw r18,r2
 5310 1c94 0E94 0000 		call __mulsf3
 5311 1c98 9B01      		movw r18,r22
 5312 1c9a AC01      		movw r20,r24
 5313 1c9c C801      		movw r24,r16
 5314 1c9e B701      		movw r22,r14
 5315 1ca0 0E94 0000 		call __addsf3
 5316 1ca4 0E94 0000 		call sqrt
 5317 1ca8 7B01      		movw r14,r22
 5318 1caa 8C01      		movw r16,r24
 5319               	.LVL215:
 5320               	.LM845:
 5321 1cac C601      		movw r24,r12
 5322 1cae B501      		movw r22,r10
 5323 1cb0 A801      		movw r20,r16
 5324 1cb2 9701      		movw r18,r14
 5325 1cb4 0E94 0000 		call __divsf3
 5326 1cb8 6883      		st Y,r22
 5327 1cba 7983      		std Y+1,r23
 5328 1cbc 8A83      		std Y+2,r24
 5329 1cbe 9B83      		std Y+3,r25
 5330               	.LM846:
 5331 1cc0 C401      		movw r24,r8
 5332 1cc2 B301      		movw r22,r6
 5333 1cc4 A801      		movw r20,r16
 5334 1cc6 9701      		movw r18,r14
 5335 1cc8 0E94 0000 		call __divsf3
 5336 1ccc 6C83      		std Y+4,r22
 5337 1cce 7D83      		std Y+5,r23
 5338 1cd0 8E83      		std Y+6,r24
 5339 1cd2 9F83      		std Y+7,r25
 5340               	.LM847:
 5341 1cd4 C201      		movw r24,r4
 5342 1cd6 B101      		movw r22,r2
 5343 1cd8 A801      		movw r20,r16
 5344 1cda 9701      		movw r18,r14
 5345 1cdc 0E94 0000 		call __divsf3
 5346 1ce0 6887      		std Y+8,r22
 5347 1ce2 7987      		std Y+9,r23
 5348 1ce4 8A87      		std Y+10,r24
 5349 1ce6 9B87      		std Y+11,r25
 5350               	/* epilogue start */
 5351               	.LBE690:
 5352               	.LM848:
 5353 1ce8 DF91      		pop r29
 5354 1cea CF91      		pop r28
 5355               	.LVL216:
 5356 1cec 1F91      		pop r17
 5357 1cee 0F91      		pop r16
 5358 1cf0 FF90      		pop r15
 5359 1cf2 EF90      		pop r14
 5360               	.LVL217:
 5361 1cf4 DF90      		pop r13
 5362 1cf6 CF90      		pop r12
 5363 1cf8 BF90      		pop r11
 5364 1cfa AF90      		pop r10
 5365 1cfc 9F90      		pop r9
 5366 1cfe 8F90      		pop r8
 5367 1d00 7F90      		pop r7
 5368 1d02 6F90      		pop r6
 5369 1d04 5F90      		pop r5
 5370 1d06 4F90      		pop r4
 5371 1d08 3F90      		pop r3
 5372 1d0a 2F90      		pop r2
 5373 1d0c 0895      		ret
 5374               	.LFE138:
 5376               	.global	_Z11accel_angle6vector
 5378               	_Z11accel_angle6vector:
 5379               	.LFB140:
 5380               	.LM849:
 5381 1d0e 4F92      		push r4
 5382 1d10 5F92      		push r5
 5383 1d12 6F92      		push r6
 5384 1d14 7F92      		push r7
 5385 1d16 8F92      		push r8
 5386 1d18 9F92      		push r9
 5387 1d1a AF92      		push r10
 5388 1d1c BF92      		push r11
 5389 1d1e CF92      		push r12
 5390 1d20 DF92      		push r13
 5391 1d22 EF92      		push r14
 5392 1d24 FF92      		push r15
 5393 1d26 0F93      		push r16
 5394 1d28 1F93      		push r17
 5395 1d2a DF93      		push r29
 5396 1d2c CF93      		push r28
 5397 1d2e CDB7      		in r28,__SP_L__
 5398 1d30 DEB7      		in r29,__SP_H__
 5399 1d32 6497      		sbiw r28,20
 5400 1d34 0FB6      		in __tmp_reg__,__SREG__
 5401 1d36 F894      		cli
 5402 1d38 DEBF      		out __SP_H__,r29
 5403 1d3a 0FBE      		out __SREG__,__tmp_reg__
 5404 1d3c CDBF      		out __SP_L__,r28
 5405               	/* prologue: function */
 5406               	/* frame size = 20 */
 5407 1d3e 2C01      		movw r4,r24
 5408 1d40 C982      		std Y+1,r12
 5409 1d42 DA82      		std Y+2,r13
 5410 1d44 EB82      		std Y+3,r14
 5411 1d46 FC82      		std Y+4,r15
 5412 1d48 0D83      		std Y+5,r16
 5413 1d4a 1E83      		std Y+6,r17
 5414 1d4c 2F83      		std Y+7,r18
 5415 1d4e 3887      		std Y+8,r19
 5416 1d50 4987      		std Y+9,r20
 5417 1d52 5A87      		std Y+10,r21
 5418 1d54 6B87      		std Y+11,r22
 5419 1d56 7C87      		std Y+12,r23
 5420               	.LM850:
 5421 1d58 A980      		ldd r10,Y+1
 5422 1d5a BA80      		ldd r11,Y+2
 5423 1d5c CB80      		ldd r12,Y+3
 5424 1d5e DC80      		ldd r13,Y+4
 5425 1d60 6D80      		ldd r6,Y+5
 5426 1d62 7E80      		ldd r7,Y+6
 5427 1d64 8F80      		ldd r8,Y+7
 5428 1d66 9884      		ldd r9,Y+8
 5429 1d68 8985      		ldd r24,Y+9
 5430 1d6a 9A85      		ldd r25,Y+10
 5431 1d6c AB85      		ldd r26,Y+11
 5432 1d6e BC85      		ldd r27,Y+12
 5433 1d70 8D87      		std Y+13,r24
 5434 1d72 9E87      		std Y+14,r25
 5435 1d74 AF87      		std Y+15,r26
 5436 1d76 B88B      		std Y+16,r27
 5437               	.LBB693:
 5438               	.LM851:
 5439 1d78 D201      		movw r26,r4
 5440 1d7a E0E0      		ldi r30,lo8(_ZZ11accel_angle6vectorE4C.87)
 5441 1d7c F0E0      		ldi r31,hi8(_ZZ11accel_angle6vectorE4C.87)
 5442 1d7e 8CE0      		ldi r24,lo8(12)
 5443               	.L119:
 5444 1d80 0190      		ld r0,Z+
 5445 1d82 0D92      		st X+,r0
 5446 1d84 8150      		subi r24,lo8(-(-1))
 5447 1d86 01F4      		brne .L119
 5448               	.LM852:
 5449 1d88 C601      		movw r24,r12
 5450 1d8a B501      		movw r22,r10
 5451 1d8c A601      		movw r20,r12
 5452 1d8e 9501      		movw r18,r10
 5453 1d90 0E94 0000 		call __mulsf3
 5454 1d94 7B01      		movw r14,r22
 5455 1d96 8C01      		movw r16,r24
 5456 1d98 C401      		movw r24,r8
 5457 1d9a B301      		movw r22,r6
 5458 1d9c A401      		movw r20,r8
 5459 1d9e 9301      		movw r18,r6
 5460 1da0 0E94 0000 		call __mulsf3
 5461 1da4 9B01      		movw r18,r22
 5462 1da6 AC01      		movw r20,r24
 5463 1da8 C801      		movw r24,r16
 5464 1daa B701      		movw r22,r14
 5465 1dac 0E94 0000 		call __addsf3
 5466 1db0 7B01      		movw r14,r22
 5467 1db2 8C01      		movw r16,r24
 5468 1db4 6D85      		ldd r22,Y+13
 5469 1db6 7E85      		ldd r23,Y+14
 5470 1db8 8F85      		ldd r24,Y+15
 5471 1dba 9889      		ldd r25,Y+16
 5472 1dbc 9B01      		movw r18,r22
 5473 1dbe AC01      		movw r20,r24
 5474 1dc0 0E94 0000 		call __mulsf3
 5475 1dc4 9B01      		movw r18,r22
 5476 1dc6 AC01      		movw r20,r24
 5477 1dc8 C801      		movw r24,r16
 5478 1dca B701      		movw r22,r14
 5479 1dcc 0E94 0000 		call __addsf3
 5480 1dd0 0E94 0000 		call sqrt
 5481 1dd4 698B      		std Y+17,r22
 5482 1dd6 7A8B      		std Y+18,r23
 5483 1dd8 8B8B      		std Y+19,r24
 5484 1dda 9C8B      		std Y+20,r25
 5485               	.LVL218:
 5486               	.LM853:
 5487 1ddc 6D85      		ldd r22,Y+13
 5488 1dde 7E85      		ldd r23,Y+14
 5489 1de0 8F85      		ldd r24,Y+15
 5490 1de2 9889      		ldd r25,Y+16
 5491 1de4 20E0      		ldi r18,lo8(0x0)
 5492 1de6 30E0      		ldi r19,hi8(0x0)
 5493 1de8 40E0      		ldi r20,hlo8(0x0)
 5494 1dea 50E0      		ldi r21,hhi8(0x0)
 5495 1dec 0E94 0000 		call __ltsf2
 5496 1df0 8823      		tst r24
 5497 1df2 04F4      		brge .L132
 5498               	.LM854:
 5499 1df4 C601      		movw r24,r12
 5500 1df6 B501      		movw r22,r10
 5501 1df8 2989      		ldd r18,Y+17
 5502 1dfa 3A89      		ldd r19,Y+18
 5503 1dfc 4B89      		ldd r20,Y+19
 5504 1dfe 5C89      		ldd r21,Y+20
 5505 1e00 0E94 0000 		call __divsf3
 5506 1e04 0E94 0000 		call acos
 5507 1e08 26EF      		ldi r18,lo8(0xc26528f6)
 5508 1e0a 38E2      		ldi r19,hi8(0xc26528f6)
 5509 1e0c 45E6      		ldi r20,hlo8(0xc26528f6)
 5510 1e0e 52EC      		ldi r21,hhi8(0xc26528f6)
 5511 1e10 0E94 0000 		call __mulsf3
 5512 1e14 D201      		movw r26,r4
 5513 1e16 6D93      		st X+,r22
 5514 1e18 7D93      		st X+,r23
 5515 1e1a 8D93      		st X+,r24
 5516 1e1c 9C93      		st X,r25
 5517 1e1e 1397      		sbiw r26,3
 5518               	.LM855:
 5519 1e20 C401      		movw r24,r8
 5520 1e22 B301      		movw r22,r6
 5521 1e24 2989      		ldd r18,Y+17
 5522 1e26 3A89      		ldd r19,Y+18
 5523 1e28 4B89      		ldd r20,Y+19
 5524 1e2a 5C89      		ldd r21,Y+20
 5525 1e2c 0E94 0000 		call __divsf3
 5526 1e30 0E94 0000 		call acos
 5527 1e34 26EF      		ldi r18,lo8(0xc26528f6)
 5528 1e36 38E2      		ldi r19,hi8(0xc26528f6)
 5529 1e38 45E6      		ldi r20,hlo8(0xc26528f6)
 5530 1e3a 52EC      		ldi r21,hhi8(0xc26528f6)
 5531 1e3c 00C0      		rjmp .L133
 5532               	.L132:
 5533               	.LM856:
 5534 1e3e C601      		movw r24,r12
 5535 1e40 B501      		movw r22,r10
 5536 1e42 2989      		ldd r18,Y+17
 5537 1e44 3A89      		ldd r19,Y+18
 5538 1e46 4B89      		ldd r20,Y+19
 5539 1e48 5C89      		ldd r21,Y+20
 5540 1e4a 0E94 0000 		call __divsf3
 5541 1e4e 0E94 0000 		call acos
 5542 1e52 26EF      		ldi r18,lo8(0x426528f6)
 5543 1e54 38E2      		ldi r19,hi8(0x426528f6)
 5544 1e56 45E6      		ldi r20,hlo8(0x426528f6)
 5545 1e58 52E4      		ldi r21,hhi8(0x426528f6)
 5546 1e5a 0E94 0000 		call __mulsf3
 5547 1e5e D201      		movw r26,r4
 5548 1e60 6D93      		st X+,r22
 5549 1e62 7D93      		st X+,r23
 5550 1e64 8D93      		st X+,r24
 5551 1e66 9C93      		st X,r25
 5552 1e68 1397      		sbiw r26,3
 5553               	.LM857:
 5554 1e6a C401      		movw r24,r8
 5555 1e6c B301      		movw r22,r6
 5556 1e6e 2989      		ldd r18,Y+17
 5557 1e70 3A89      		ldd r19,Y+18
 5558 1e72 4B89      		ldd r20,Y+19
 5559 1e74 5C89      		ldd r21,Y+20
 5560 1e76 0E94 0000 		call __divsf3
 5561 1e7a 0E94 0000 		call acos
 5562 1e7e 26EF      		ldi r18,lo8(0x426528f6)
 5563 1e80 38E2      		ldi r19,hi8(0x426528f6)
 5564 1e82 45E6      		ldi r20,hlo8(0x426528f6)
 5565 1e84 52E4      		ldi r21,hhi8(0x426528f6)
 5566               	.L133:
 5567 1e86 0E94 0000 		call __mulsf3
 5568 1e8a F201      		movw r30,r4
 5569 1e8c 6483      		std Z+4,r22
 5570 1e8e 7583      		std Z+5,r23
 5571 1e90 8683      		std Z+6,r24
 5572 1e92 9783      		std Z+7,r25
 5573               	.LM858:
 5574 1e94 D201      		movw r26,r4
 5575 1e96 6D91      		ld r22,X+
 5576 1e98 7D91      		ld r23,X+
 5577 1e9a 8D91      		ld r24,X+
 5578 1e9c 9C91      		ld r25,X
 5579 1e9e 20E0      		ldi r18,lo8(0x42b40000)
 5580 1ea0 30E0      		ldi r19,hi8(0x42b40000)
 5581 1ea2 44EB      		ldi r20,hlo8(0x42b40000)
 5582 1ea4 52E4      		ldi r21,hhi8(0x42b40000)
 5583 1ea6 0E94 0000 		call __subsf3
 5584 1eaa 7B01      		movw r14,r22
 5585 1eac 8C01      		movw r16,r24
 5586 1eae F201      		movw r30,r4
 5587 1eb0 6083      		st Z,r22
 5588 1eb2 7183      		std Z+1,r23
 5589 1eb4 8283      		std Z+2,r24
 5590 1eb6 9383      		std Z+3,r25
 5591               	.LM859:
 5592 1eb8 20E0      		ldi r18,lo8(0xc3340000)
 5593 1eba 30E0      		ldi r19,hi8(0xc3340000)
 5594 1ebc 44E3      		ldi r20,hlo8(0xc3340000)
 5595 1ebe 53EC      		ldi r21,hhi8(0xc3340000)
 5596 1ec0 0E94 0000 		call __ltsf2
 5597 1ec4 8823      		tst r24
 5598 1ec6 04F4      		brge .L123
 5599               	.LM860:
 5600 1ec8 C801      		movw r24,r16
 5601 1eca B701      		movw r22,r14
 5602 1ecc 20E0      		ldi r18,lo8(0x43b40000)
 5603 1ece 30E0      		ldi r19,hi8(0x43b40000)
 5604 1ed0 44EB      		ldi r20,hlo8(0x43b40000)
 5605 1ed2 53E4      		ldi r21,hhi8(0x43b40000)
 5606 1ed4 0E94 0000 		call __addsf3
 5607 1ed8 D201      		movw r26,r4
 5608 1eda 6D93      		st X+,r22
 5609 1edc 7D93      		st X+,r23
 5610 1ede 8D93      		st X+,r24
 5611 1ee0 9C93      		st X,r25
 5612 1ee2 1397      		sbiw r26,3
 5613               	.L123:
 5614               	.LM861:
 5615 1ee4 F201      		movw r30,r4
 5616 1ee6 6481      		ldd r22,Z+4
 5617 1ee8 7581      		ldd r23,Z+5
 5618 1eea 8681      		ldd r24,Z+6
 5619 1eec 9781      		ldd r25,Z+7
 5620 1eee 20E0      		ldi r18,lo8(0x42b40000)
 5621 1ef0 30E0      		ldi r19,hi8(0x42b40000)
 5622 1ef2 44EB      		ldi r20,hlo8(0x42b40000)
 5623 1ef4 52E4      		ldi r21,hhi8(0x42b40000)
 5624 1ef6 0E94 0000 		call __subsf3
 5625 1efa 7B01      		movw r14,r22
 5626 1efc 8C01      		movw r16,r24
 5627 1efe D201      		movw r26,r4
 5628 1f00 1496      		adiw r26,4
 5629 1f02 6D93      		st X+,r22
 5630 1f04 7D93      		st X+,r23
 5631 1f06 8D93      		st X+,r24
 5632 1f08 9C93      		st X,r25
 5633 1f0a 1797      		sbiw r26,4+3
 5634               	.LM862:
 5635 1f0c 20E0      		ldi r18,lo8(0xc3340000)
 5636 1f0e 30E0      		ldi r19,hi8(0xc3340000)
 5637 1f10 44E3      		ldi r20,hlo8(0xc3340000)
 5638 1f12 53EC      		ldi r21,hhi8(0xc3340000)
 5639 1f14 0E94 0000 		call __ltsf2
 5640 1f18 8823      		tst r24
 5641 1f1a 04F4      		brge .L125
 5642               	.LM863:
 5643 1f1c C801      		movw r24,r16
 5644 1f1e B701      		movw r22,r14
 5645 1f20 20E0      		ldi r18,lo8(0x43b40000)
 5646 1f22 30E0      		ldi r19,hi8(0x43b40000)
 5647 1f24 44EB      		ldi r20,hlo8(0x43b40000)
 5648 1f26 53E4      		ldi r21,hhi8(0x43b40000)
 5649 1f28 0E94 0000 		call __addsf3
 5650 1f2c F201      		movw r30,r4
 5651 1f2e 6483      		std Z+4,r22
 5652 1f30 7583      		std Z+5,r23
 5653 1f32 8683      		std Z+6,r24
 5654 1f34 9783      		std Z+7,r25
 5655               	.L125:
 5656               	.LM864:
 5657 1f36 6D85      		ldd r22,Y+13
 5658 1f38 7E85      		ldd r23,Y+14
 5659 1f3a 8F85      		ldd r24,Y+15
 5660 1f3c 9889      		ldd r25,Y+16
 5661 1f3e 2989      		ldd r18,Y+17
 5662 1f40 3A89      		ldd r19,Y+18
 5663 1f42 4B89      		ldd r20,Y+19
 5664 1f44 5C89      		ldd r21,Y+20
 5665 1f46 0E94 0000 		call __divsf3
 5666 1f4a 0E94 0000 		call acos
 5667 1f4e 26EF      		ldi r18,lo8(0x426528f6)
 5668 1f50 38E2      		ldi r19,hi8(0x426528f6)
 5669 1f52 45E6      		ldi r20,hlo8(0x426528f6)
 5670 1f54 52E4      		ldi r21,hhi8(0x426528f6)
 5671 1f56 0E94 0000 		call __mulsf3
 5672 1f5a D201      		movw r26,r4
 5673 1f5c 1896      		adiw r26,8
 5674 1f5e 6D93      		st X+,r22
 5675 1f60 7D93      		st X+,r23
 5676 1f62 8D93      		st X+,r24
 5677 1f64 9C93      		st X,r25
 5678 1f66 1B97      		sbiw r26,8+3
 5679               	.LBE693:
 5680               	.LM865:
 5681 1f68 C201      		movw r24,r4
 5682               	/* epilogue start */
 5683 1f6a 6496      		adiw r28,20
 5684 1f6c 0FB6      		in __tmp_reg__,__SREG__
 5685 1f6e F894      		cli
 5686 1f70 DEBF      		out __SP_H__,r29
 5687 1f72 0FBE      		out __SREG__,__tmp_reg__
 5688 1f74 CDBF      		out __SP_L__,r28
 5689 1f76 CF91      		pop r28
 5690 1f78 DF91      		pop r29
 5691 1f7a 1F91      		pop r17
 5692 1f7c 0F91      		pop r16
 5693 1f7e FF90      		pop r15
 5694 1f80 EF90      		pop r14
 5695 1f82 DF90      		pop r13
 5696 1f84 CF90      		pop r12
 5697 1f86 BF90      		pop r11
 5698 1f88 AF90      		pop r10
 5699 1f8a 9F90      		pop r9
 5700 1f8c 8F90      		pop r8
 5701 1f8e 7F90      		pop r7
 5702 1f90 6F90      		pop r6
 5703 1f92 5F90      		pop r5
 5704 1f94 4F90      		pop r4
 5705 1f96 0895      		ret
 5706               	.LFE140:
 5708               	.global	_Z23accel_measurement_noisev
 5710               	_Z23accel_measurement_noisev:
 5711               	.LFB143:
 5712               	.LM866:
 5713 1f98 2F92      		push r2
 5714 1f9a 3F92      		push r3
 5715 1f9c 4F92      		push r4
 5716 1f9e 5F92      		push r5
 5717 1fa0 6F92      		push r6
 5718 1fa2 7F92      		push r7
 5719 1fa4 8F92      		push r8
 5720 1fa6 9F92      		push r9
 5721 1fa8 AF92      		push r10
 5722 1faa BF92      		push r11
 5723 1fac CF92      		push r12
 5724 1fae DF92      		push r13
 5725 1fb0 EF92      		push r14
 5726 1fb2 FF92      		push r15
 5727 1fb4 0F93      		push r16
 5728 1fb6 1F93      		push r17
 5729 1fb8 DF93      		push r29
 5730 1fba CF93      		push r28
 5731 1fbc CDB7      		in r28,__SP_L__
 5732 1fbe DEB7      		in r29,__SP_H__
 5733 1fc0 CE58      		subi r28,lo8(-(-398))
 5734 1fc2 D140      		sbci r29,hi8(-(-398))
 5735 1fc4 0FB6      		in __tmp_reg__,__SREG__
 5736 1fc6 F894      		cli
 5737 1fc8 DEBF      		out __SP_H__,r29
 5738 1fca 0FBE      		out __SREG__,__tmp_reg__
 5739 1fcc CDBF      		out __SP_L__,r28
 5740               	/* prologue: function */
 5741               	/* frame size = 398 */
 5742 1fce C357      		subi r28,lo8(-397)
 5743 1fd0 DE4F      		sbci r29,hi8(-397)
 5744 1fd2 9983      		std Y+1,r25
 5745 1fd4 8883      		st Y,r24
 5746 1fd6 CD58      		subi r28,lo8(397)
 5747 1fd8 D140      		sbci r29,hi8(397)
 5748               	.LBB694:
 5749               	.LM867:
 5750 1fda DC01      		movw r26,r24
 5751 1fdc E0E0      		ldi r30,lo8(_ZZ23accel_measurement_noisevE4C.90)
 5752 1fde F0E0      		ldi r31,hi8(_ZZ23accel_measurement_noisevE4C.90)
 5753 1fe0 8CE0      		ldi r24,lo8(12)
 5754               	.L135:
 5755 1fe2 0190      		ld r0,Z+
 5756 1fe4 0D92      		st X+,r0
 5757 1fe6 8150      		subi r24,lo8(-(-1))
 5758 1fe8 01F4      		brne .L135
 5759 1fea AA24      		clr r10
 5760 1fec BB24      		clr r11
 5761               	.LVL219:
 5762               	.LBB695:
 5763               	.LM868:
 5764 1fee EDE0      		ldi r30,lo8(13)
 5765 1ff0 6E2E      		mov r6,r30
 5766 1ff2 712C      		mov r7,__zero_reg__
 5767 1ff4 6C0E      		add r6,r28
 5768 1ff6 7D1E      		adc r7,r29
 5769 1ff8 4E01      		movw r8,r28
 5770 1ffa 0894      		sec
 5771 1ffc 811C      		adc r8,__zero_reg__
 5772 1ffe 911C      		adc r9,__zero_reg__
 5773               	.L136:
 5774 2000 C401      		movw r24,r8
 5775 2002 B301      		movw r22,r6
 5776 2004 0E94 0000 		call _Z17compass_read_dataP6vectorS0_
 5777               	.LM869:
 5778 2008 C401      		movw r24,r8
 5779 200a 0E94 0000 		call _Z7accel_gP6vector
 5780               	.LM870:
 5781 200e C501      		movw r24,r10
 5782 2010 880F      		lsl r24
 5783 2012 991F      		rol r25
 5784 2014 8A0D      		add r24,r10
 5785 2016 9B1D      		adc r25,r11
 5786 2018 880F      		lsl r24
 5787 201a 991F      		rol r25
 5788 201c 880F      		lsl r24
 5789 201e 991F      		rol r25
 5790 2020 880D      		add r24,r8
 5791 2022 991D      		adc r25,r9
 5792 2024 4896      		adiw r24,24
 5793 2026 C980      		ldd r12,Y+1
 5794 2028 DA80      		ldd r13,Y+2
 5795 202a EB80      		ldd r14,Y+3
 5796 202c FC80      		ldd r15,Y+4
 5797 202e 0D81      		ldd r16,Y+5
 5798 2030 1E81      		ldd r17,Y+6
 5799 2032 2F81      		ldd r18,Y+7
 5800 2034 3885      		ldd r19,Y+8
 5801 2036 4985      		ldd r20,Y+9
 5802 2038 5A85      		ldd r21,Y+10
 5803 203a 6B85      		ldd r22,Y+11
 5804 203c 7C85      		ldd r23,Y+12
 5805 203e 0E94 0000 		call _Z11accel_angle6vector
 5806               	.LM871:
 5807 2042 0894      		sec
 5808 2044 A11C      		adc r10,__zero_reg__
 5809 2046 B11C      		adc r11,__zero_reg__
 5810 2048 84E1      		ldi r24,lo8(20)
 5811 204a A816      		cp r10,r24
 5812 204c B104      		cpc r11,__zero_reg__
 5813 204e 01F4      		brne .L136
 5814 2050 59E1      		ldi r21,lo8(25)
 5815 2052 E52E      		mov r14,r21
 5816 2054 F12C      		mov r15,__zero_reg__
 5817 2056 EC0E      		add r14,r28
 5818 2058 FD1E      		adc r15,r29
 5819 205a 8701      		movw r16,r14
 5820 205c 80E0      		ldi r24,lo8(0x0)
 5821 205e 90E0      		ldi r25,hi8(0x0)
 5822 2060 A0E0      		ldi r26,hlo8(0x0)
 5823 2062 B0E0      		ldi r27,hhi8(0x0)
 5824 2064 C757      		subi r28,lo8(-393)
 5825 2066 DE4F      		sbci r29,hi8(-393)
 5826 2068 8883      		st Y,r24
 5827 206a 9983      		std Y+1,r25
 5828 206c AA83      		std Y+2,r26
 5829 206e BB83      		std Y+3,r27
 5830 2070 C958      		subi r28,lo8(393)
 5831 2072 D140      		sbci r29,hi8(393)
 5832 2074 1C01      		movw r2,r24
 5833 2076 2D01      		movw r4,r26
 5834 2078 3C01      		movw r6,r24
 5835 207a 4D01      		movw r8,r26
 5836               	.LBE695:
 5837               	.LBB696:
 5838               	.LM872:
 5839 207c 49E0      		ldi r20,lo8(265)
 5840 207e C42E      		mov r12,r20
 5841 2080 41E0      		ldi r20,hi8(265)
 5842 2082 D42E      		mov r13,r20
 5843 2084 CC0E      		add r12,r28
 5844 2086 DD1E      		adc r13,r29
 5845               	.L137:
 5846               	.LM873:
 5847 2088 C401      		movw r24,r8
 5848 208a B301      		movw r22,r6
 5849 208c D801      		movw r26,r16
 5850 208e 2D91      		ld r18,X+
 5851 2090 3D91      		ld r19,X+
 5852 2092 4D91      		ld r20,X+
 5853 2094 5C91      		ld r21,X
 5854 2096 0E94 0000 		call __addsf3
 5855 209a 3B01      		movw r6,r22
 5856 209c 4C01      		movw r8,r24
 5857               	.LM874:
 5858 209e C201      		movw r24,r4
 5859 20a0 B101      		movw r22,r2
 5860 20a2 F801      		movw r30,r16
 5861 20a4 2481      		ldd r18,Z+4
 5862 20a6 3581      		ldd r19,Z+5
 5863 20a8 4681      		ldd r20,Z+6
 5864 20aa 5781      		ldd r21,Z+7
 5865 20ac 0E94 0000 		call __addsf3
 5866 20b0 1B01      		movw r2,r22
 5867 20b2 2C01      		movw r4,r24
 5868               	.LM875:
 5869 20b4 C757      		subi r28,lo8(-393)
 5870 20b6 DE4F      		sbci r29,hi8(-393)
 5871 20b8 6881      		ld r22,Y
 5872 20ba 7981      		ldd r23,Y+1
 5873 20bc 8A81      		ldd r24,Y+2
 5874 20be 9B81      		ldd r25,Y+3
 5875 20c0 C958      		subi r28,lo8(393)
 5876 20c2 D140      		sbci r29,hi8(393)
 5877 20c4 D801      		movw r26,r16
 5878 20c6 1896      		adiw r26,8
 5879 20c8 2D91      		ld r18,X+
 5880 20ca 3D91      		ld r19,X+
 5881 20cc 4D91      		ld r20,X+
 5882 20ce 5C91      		ld r21,X
 5883 20d0 1B97      		sbiw r26,8+3
 5884 20d2 0E94 0000 		call __addsf3
 5885 20d6 C757      		subi r28,lo8(-393)
 5886 20d8 DE4F      		sbci r29,hi8(-393)
 5887 20da 6883      		st Y,r22
 5888 20dc 7983      		std Y+1,r23
 5889 20de 8A83      		std Y+2,r24
 5890 20e0 9B83      		std Y+3,r25
 5891 20e2 C958      		subi r28,lo8(393)
 5892 20e4 D140      		sbci r29,hi8(393)
 5893 20e6 045F      		subi r16,lo8(-(12))
 5894 20e8 1F4F      		sbci r17,hi8(-(12))
 5895               	.LM876:
 5896 20ea 0C15      		cp r16,r12
 5897 20ec 1D05      		cpc r17,r13
 5898 20ee 01F4      		brne .L137
 5899 20f0 80E0      		ldi r24,lo8(0x0)
 5900 20f2 90E0      		ldi r25,hi8(0x0)
 5901 20f4 A0E0      		ldi r26,hlo8(0x0)
 5902 20f6 B0E0      		ldi r27,hhi8(0x0)
 5903 20f8 CB57      		subi r28,lo8(-389)
 5904 20fa DE4F      		sbci r29,hi8(-389)
 5905 20fc 8883      		st Y,r24
 5906 20fe 9983      		std Y+1,r25
 5907 2100 AA83      		std Y+2,r26
 5908 2102 BB83      		std Y+3,r27
 5909 2104 C558      		subi r28,lo8(389)
 5910 2106 D140      		sbci r29,hi8(389)
 5911 2108 CF57      		subi r28,lo8(-385)
 5912 210a DE4F      		sbci r29,hi8(-385)
 5913 210c 8883      		st Y,r24
 5914 210e 9983      		std Y+1,r25
 5915 2110 AA83      		std Y+2,r26
 5916 2112 BB83      		std Y+3,r27
 5917 2114 C158      		subi r28,lo8(385)
 5918 2116 D140      		sbci r29,hi8(385)
 5919 2118 5C01      		movw r10,r24
 5920 211a 6D01      		movw r12,r26
 5921               	.LVL220:
 5922               	.L138:
 5923               	.LBE696:
 5924               	.LBB697:
 5925               	.LM877:
 5926 211c D701      		movw r26,r14
 5927 211e 2D91      		ld r18,X+
 5928 2120 3D91      		ld r19,X+
 5929 2122 4D91      		ld r20,X+
 5930 2124 5C91      		ld r21,X
 5931 2126 CA01      		movw r24,r20
 5932 2128 B901      		movw r22,r18
 5933 212a 0E94 0000 		call __mulsf3
 5934 212e 9B01      		movw r18,r22
 5935 2130 AC01      		movw r20,r24
 5936 2132 C601      		movw r24,r12
 5937 2134 B501      		movw r22,r10
 5938 2136 0E94 0000 		call __addsf3
 5939 213a 5B01      		movw r10,r22
 5940 213c 6C01      		movw r12,r24
 5941               	.LM878:
 5942 213e F701      		movw r30,r14
 5943 2140 2481      		ldd r18,Z+4
 5944 2142 3581      		ldd r19,Z+5
 5945 2144 4681      		ldd r20,Z+6
 5946 2146 5781      		ldd r21,Z+7
 5947 2148 CA01      		movw r24,r20
 5948 214a B901      		movw r22,r18
 5949 214c 0E94 0000 		call __mulsf3
 5950 2150 9B01      		movw r18,r22
 5951 2152 AC01      		movw r20,r24
 5952 2154 CF57      		subi r28,lo8(-385)
 5953 2156 DE4F      		sbci r29,hi8(-385)
 5954 2158 6881      		ld r22,Y
 5955 215a 7981      		ldd r23,Y+1
 5956 215c 8A81      		ldd r24,Y+2
 5957 215e 9B81      		ldd r25,Y+3
 5958 2160 C158      		subi r28,lo8(385)
 5959 2162 D140      		sbci r29,hi8(385)
 5960 2164 0E94 0000 		call __addsf3
 5961 2168 CF57      		subi r28,lo8(-385)
 5962 216a DE4F      		sbci r29,hi8(-385)
 5963 216c 6883      		st Y,r22
 5964 216e 7983      		std Y+1,r23
 5965 2170 8A83      		std Y+2,r24
 5966 2172 9B83      		std Y+3,r25
 5967 2174 C158      		subi r28,lo8(385)
 5968 2176 D140      		sbci r29,hi8(385)
 5969               	.LM879:
 5970 2178 D701      		movw r26,r14
 5971 217a 1896      		adiw r26,8
 5972 217c 2D91      		ld r18,X+
 5973 217e 3D91      		ld r19,X+
 5974 2180 4D91      		ld r20,X+
 5975 2182 5C91      		ld r21,X
 5976 2184 1B97      		sbiw r26,8+3
 5977 2186 CA01      		movw r24,r20
 5978 2188 B901      		movw r22,r18
 5979 218a 0E94 0000 		call __mulsf3
 5980 218e 9B01      		movw r18,r22
 5981 2190 AC01      		movw r20,r24
 5982 2192 CB57      		subi r28,lo8(-389)
 5983 2194 DE4F      		sbci r29,hi8(-389)
 5984 2196 6881      		ld r22,Y
 5985 2198 7981      		ldd r23,Y+1
 5986 219a 8A81      		ldd r24,Y+2
 5987 219c 9B81      		ldd r25,Y+3
 5988 219e C558      		subi r28,lo8(389)
 5989 21a0 D140      		sbci r29,hi8(389)
 5990 21a2 0E94 0000 		call __addsf3
 5991 21a6 CB57      		subi r28,lo8(-389)
 5992 21a8 DE4F      		sbci r29,hi8(-389)
 5993 21aa 6883      		st Y,r22
 5994 21ac 7983      		std Y+1,r23
 5995 21ae 8A83      		std Y+2,r24
 5996 21b0 9B83      		std Y+3,r25
 5997 21b2 C558      		subi r28,lo8(389)
 5998 21b4 D140      		sbci r29,hi8(389)
 5999 21b6 ECE0      		ldi r30,lo8(12)
 6000 21b8 F0E0      		ldi r31,hi8(12)
 6001 21ba EE0E      		add r14,r30
 6002 21bc FF1E      		adc r15,r31
 6003               	.LM880:
 6004 21be E016      		cp r14,r16
 6005 21c0 F106      		cpc r15,r17
 6006 21c2 01F0      		breq .+2
 6007 21c4 00C0      		rjmp .L138
 6008               	.LBE697:
 6009               	.LM881:
 6010 21c6 C401      		movw r24,r8
 6011 21c8 B301      		movw r22,r6
 6012 21ca A401      		movw r20,r8
 6013 21cc 9301      		movw r18,r6
 6014 21ce 0E94 0000 		call __mulsf3
 6015 21d2 20E0      		ldi r18,lo8(0xc1a00000)
 6016 21d4 30E0      		ldi r19,hi8(0xc1a00000)
 6017 21d6 40EA      		ldi r20,hlo8(0xc1a00000)
 6018 21d8 51EC      		ldi r21,hhi8(0xc1a00000)
 6019 21da 0E94 0000 		call __divsf3
 6020 21de 9B01      		movw r18,r22
 6021 21e0 AC01      		movw r20,r24
 6022 21e2 C601      		movw r24,r12
 6023 21e4 B501      		movw r22,r10
 6024 21e6 0E94 0000 		call __addsf3
 6025 21ea 20E0      		ldi r18,lo8(0x41980000)
 6026 21ec 30E0      		ldi r19,hi8(0x41980000)
 6027 21ee 48E9      		ldi r20,hlo8(0x41980000)
 6028 21f0 51E4      		ldi r21,hhi8(0x41980000)
 6029 21f2 0E94 0000 		call __divsf3
 6030 21f6 9B01      		movw r18,r22
 6031 21f8 AC01      		movw r20,r24
 6032 21fa C357      		subi r28,lo8(-397)
 6033 21fc DE4F      		sbci r29,hi8(-397)
 6034 21fe A881      		ld r26,Y
 6035 2200 B981      		ldd r27,Y+1
 6036 2202 CD58      		subi r28,lo8(397)
 6037 2204 D140      		sbci r29,hi8(397)
 6038 2206 6D91      		ld r22,X+
 6039 2208 7D91      		ld r23,X+
 6040 220a 8D91      		ld r24,X+
 6041 220c 9C91      		ld r25,X
 6042 220e 0E94 0000 		call __addsf3
 6043 2212 C357      		subi r28,lo8(-397)
 6044 2214 DE4F      		sbci r29,hi8(-397)
 6045 2216 E881      		ld r30,Y
 6046 2218 F981      		ldd r31,Y+1
 6047 221a CD58      		subi r28,lo8(397)
 6048 221c D140      		sbci r29,hi8(397)
 6049 221e 6083      		st Z,r22
 6050 2220 7183      		std Z+1,r23
 6051 2222 8283      		std Z+2,r24
 6052 2224 9383      		std Z+3,r25
 6053               	.LM882:
 6054 2226 C201      		movw r24,r4
 6055 2228 B101      		movw r22,r2
 6056 222a A201      		movw r20,r4
 6057 222c 9101      		movw r18,r2
 6058 222e 0E94 0000 		call __mulsf3
 6059 2232 20E0      		ldi r18,lo8(0xc1a00000)
 6060 2234 30E0      		ldi r19,hi8(0xc1a00000)
 6061 2236 40EA      		ldi r20,hlo8(0xc1a00000)
 6062 2238 51EC      		ldi r21,hhi8(0xc1a00000)
 6063 223a 0E94 0000 		call __divsf3
 6064 223e 9B01      		movw r18,r22
 6065 2240 AC01      		movw r20,r24
 6066 2242 CF57      		subi r28,lo8(-385)
 6067 2244 DE4F      		sbci r29,hi8(-385)
 6068 2246 6881      		ld r22,Y
 6069 2248 7981      		ldd r23,Y+1
 6070 224a 8A81      		ldd r24,Y+2
 6071 224c 9B81      		ldd r25,Y+3
 6072 224e C158      		subi r28,lo8(385)
 6073 2250 D140      		sbci r29,hi8(385)
 6074 2252 0E94 0000 		call __addsf3
 6075 2256 20E0      		ldi r18,lo8(0x41980000)
 6076 2258 30E0      		ldi r19,hi8(0x41980000)
 6077 225a 48E9      		ldi r20,hlo8(0x41980000)
 6078 225c 51E4      		ldi r21,hhi8(0x41980000)
 6079 225e 0E94 0000 		call __divsf3
 6080 2262 9B01      		movw r18,r22
 6081 2264 AC01      		movw r20,r24
 6082 2266 C357      		subi r28,lo8(-397)
 6083 2268 DE4F      		sbci r29,hi8(-397)
 6084 226a A881      		ld r26,Y
 6085 226c B981      		ldd r27,Y+1
 6086 226e CD58      		subi r28,lo8(397)
 6087 2270 D140      		sbci r29,hi8(397)
 6088 2272 1496      		adiw r26,4
 6089 2274 6D91      		ld r22,X+
 6090 2276 7D91      		ld r23,X+
 6091 2278 8D91      		ld r24,X+
 6092 227a 9C91      		ld r25,X
 6093 227c 1797      		sbiw r26,4+3
 6094 227e 0E94 0000 		call __addsf3
 6095 2282 C357      		subi r28,lo8(-397)
 6096 2284 DE4F      		sbci r29,hi8(-397)
 6097 2286 E881      		ld r30,Y
 6098 2288 F981      		ldd r31,Y+1
 6099 228a CD58      		subi r28,lo8(397)
 6100 228c D140      		sbci r29,hi8(397)
 6101 228e 6483      		std Z+4,r22
 6102 2290 7583      		std Z+5,r23
 6103 2292 8683      		std Z+6,r24
 6104 2294 9783      		std Z+7,r25
 6105               	.LM883:
 6106 2296 C757      		subi r28,lo8(-393)
 6107 2298 DE4F      		sbci r29,hi8(-393)
 6108 229a 6881      		ld r22,Y
 6109 229c 7981      		ldd r23,Y+1
 6110 229e 8A81      		ldd r24,Y+2
 6111 22a0 9B81      		ldd r25,Y+3
 6112 22a2 C958      		subi r28,lo8(393)
 6113 22a4 D140      		sbci r29,hi8(393)
 6114 22a6 9B01      		movw r18,r22
 6115 22a8 AC01      		movw r20,r24
 6116 22aa 0E94 0000 		call __mulsf3
 6117 22ae 20E0      		ldi r18,lo8(0xc1a00000)
 6118 22b0 30E0      		ldi r19,hi8(0xc1a00000)
 6119 22b2 40EA      		ldi r20,hlo8(0xc1a00000)
 6120 22b4 51EC      		ldi r21,hhi8(0xc1a00000)
 6121 22b6 0E94 0000 		call __divsf3
 6122 22ba 9B01      		movw r18,r22
 6123 22bc AC01      		movw r20,r24
 6124 22be CB57      		subi r28,lo8(-389)
 6125 22c0 DE4F      		sbci r29,hi8(-389)
 6126 22c2 6881      		ld r22,Y
 6127 22c4 7981      		ldd r23,Y+1
 6128 22c6 8A81      		ldd r24,Y+2
 6129 22c8 9B81      		ldd r25,Y+3
 6130 22ca C558      		subi r28,lo8(389)
 6131 22cc D140      		sbci r29,hi8(389)
 6132 22ce 0E94 0000 		call __addsf3
 6133 22d2 20E0      		ldi r18,lo8(0x41980000)
 6134 22d4 30E0      		ldi r19,hi8(0x41980000)
 6135 22d6 48E9      		ldi r20,hlo8(0x41980000)
 6136 22d8 51E4      		ldi r21,hhi8(0x41980000)
 6137 22da 0E94 0000 		call __divsf3
 6138 22de 9B01      		movw r18,r22
 6139 22e0 AC01      		movw r20,r24
 6140 22e2 C357      		subi r28,lo8(-397)
 6141 22e4 DE4F      		sbci r29,hi8(-397)
 6142 22e6 A881      		ld r26,Y
 6143 22e8 B981      		ldd r27,Y+1
 6144 22ea CD58      		subi r28,lo8(397)
 6145 22ec D140      		sbci r29,hi8(397)
 6146 22ee 1896      		adiw r26,8
 6147 22f0 6D91      		ld r22,X+
 6148 22f2 7D91      		ld r23,X+
 6149 22f4 8D91      		ld r24,X+
 6150 22f6 9C91      		ld r25,X
 6151 22f8 1B97      		sbiw r26,8+3
 6152 22fa 0E94 0000 		call __addsf3
 6153 22fe C357      		subi r28,lo8(-397)
 6154 2300 DE4F      		sbci r29,hi8(-397)
 6155 2302 E881      		ld r30,Y
 6156 2304 F981      		ldd r31,Y+1
 6157 2306 CD58      		subi r28,lo8(397)
 6158 2308 D140      		sbci r29,hi8(397)
 6159 230a 6087      		std Z+8,r22
 6160 230c 7187      		std Z+9,r23
 6161 230e 8287      		std Z+10,r24
 6162 2310 9387      		std Z+11,r25
 6163               	.LBE694:
 6164               	.LM884:
 6165 2312 CF01      		movw r24,r30
 6166               	/* epilogue start */
 6167 2314 C257      		subi r28,lo8(-(398))
 6168 2316 DE4F      		sbci r29,hi8(-(398))
 6169 2318 0FB6      		in __tmp_reg__,__SREG__
 6170 231a F894      		cli
 6171 231c DEBF      		out __SP_H__,r29
 6172 231e 0FBE      		out __SREG__,__tmp_reg__
 6173 2320 CDBF      		out __SP_L__,r28
 6174 2322 CF91      		pop r28
 6175 2324 DF91      		pop r29
 6176 2326 1F91      		pop r17
 6177 2328 0F91      		pop r16
 6178 232a FF90      		pop r15
 6179 232c EF90      		pop r14
 6180 232e DF90      		pop r13
 6181 2330 CF90      		pop r12
 6182 2332 BF90      		pop r11
 6183 2334 AF90      		pop r10
 6184 2336 9F90      		pop r9
 6185 2338 8F90      		pop r8
 6186 233a 7F90      		pop r7
 6187 233c 6F90      		pop r6
 6188 233e 5F90      		pop r5
 6189 2340 4F90      		pop r4
 6190 2342 3F90      		pop r3
 6191 2344 2F90      		pop r2
 6192 2346 0895      		ret
 6193               	.LFE143:
 6195               	.global	_Z23accel_angle_acquisitionv
 6197               	_Z23accel_angle_acquisitionv:
 6198               	.LFB141:
 6199               	.LM885:
 6200 2348 AF92      		push r10
 6201 234a BF92      		push r11
 6202 234c CF92      		push r12
 6203 234e DF92      		push r13
 6204 2350 EF92      		push r14
 6205 2352 FF92      		push r15
 6206 2354 0F93      		push r16
 6207 2356 1F93      		push r17
 6208 2358 DF93      		push r29
 6209 235a CF93      		push r28
 6210 235c CDB7      		in r28,__SP_L__
 6211 235e DEB7      		in r29,__SP_H__
 6212 2360 6897      		sbiw r28,24
 6213 2362 0FB6      		in __tmp_reg__,__SREG__
 6214 2364 F894      		cli
 6215 2366 DEBF      		out __SP_H__,r29
 6216 2368 0FBE      		out __SREG__,__tmp_reg__
 6217 236a CDBF      		out __SP_L__,r28
 6218               	/* prologue: function */
 6219               	/* frame size = 24 */
 6220 236c 5C01      		movw r10,r24
 6221               	.LBB698:
 6222               	.LM886:
 6223 236e 8E01      		movw r16,r28
 6224 2370 0F5F      		subi r16,lo8(-(1))
 6225 2372 1F4F      		sbci r17,hi8(-(1))
 6226 2374 C801      		movw r24,r16
 6227 2376 BE01      		movw r22,r28
 6228 2378 635F      		subi r22,lo8(-(13))
 6229 237a 7F4F      		sbci r23,hi8(-(13))
 6230 237c 0E94 0000 		call _Z17compass_read_dataP6vectorS0_
 6231               	.LM887:
 6232 2380 C801      		movw r24,r16
 6233 2382 0E94 0000 		call _Z7accel_gP6vector
 6234               	.LM888:
 6235 2386 C501      		movw r24,r10
 6236 2388 C980      		ldd r12,Y+1
 6237 238a DA80      		ldd r13,Y+2
 6238 238c EB80      		ldd r14,Y+3
 6239 238e FC80      		ldd r15,Y+4
 6240 2390 0D81      		ldd r16,Y+5
 6241 2392 1E81      		ldd r17,Y+6
 6242 2394 2F81      		ldd r18,Y+7
 6243 2396 3885      		ldd r19,Y+8
 6244 2398 4985      		ldd r20,Y+9
 6245 239a 5A85      		ldd r21,Y+10
 6246 239c 6B85      		ldd r22,Y+11
 6247 239e 7C85      		ldd r23,Y+12
 6248 23a0 0E94 0000 		call _Z11accel_angle6vector
 6249               	.LM889:
 6250 23a4 F501      		movw r30,r10
 6251 23a6 6081      		ld r22,Z
 6252 23a8 7181      		ldd r23,Z+1
 6253 23aa 8281      		ldd r24,Z+2
 6254 23ac 9381      		ldd r25,Z+3
 6255 23ae 20E0      		ldi r18,lo8(0x0)
 6256 23b0 30E0      		ldi r19,hi8(0x0)
 6257 23b2 40E0      		ldi r20,hlo8(0x0)
 6258 23b4 50E0      		ldi r21,hhi8(0x0)
 6259 23b6 0E94 0000 		call __ltsf2
 6260 23ba 8823      		tst r24
 6261 23bc 04F4      		brge .L144
 6262               	.LM890:
 6263 23be F501      		movw r30,r10
 6264 23c0 8085      		ldd r24,Z+8
 6265 23c2 9185      		ldd r25,Z+9
 6266 23c4 A285      		ldd r26,Z+10
 6267 23c6 B385      		ldd r27,Z+11
 6268 23c8 B058      		subi r27,0x80
 6269 23ca 8087      		std Z+8,r24
 6270 23cc 9187      		std Z+9,r25
 6271 23ce A287      		std Z+10,r26
 6272 23d0 B387      		std Z+11,r27
 6273               	.L144:
 6274               	.LBE698:
 6275               	.LM891:
 6276 23d2 C501      		movw r24,r10
 6277               	/* epilogue start */
 6278 23d4 6896      		adiw r28,24
 6279 23d6 0FB6      		in __tmp_reg__,__SREG__
 6280 23d8 F894      		cli
 6281 23da DEBF      		out __SP_H__,r29
 6282 23dc 0FBE      		out __SREG__,__tmp_reg__
 6283 23de CDBF      		out __SP_L__,r28
 6284 23e0 CF91      		pop r28
 6285 23e2 DF91      		pop r29
 6286 23e4 1F91      		pop r17
 6287 23e6 0F91      		pop r16
 6288 23e8 FF90      		pop r15
 6289 23ea EF90      		pop r14
 6290 23ec DF90      		pop r13
 6291 23ee CF90      		pop r12
 6292 23f0 BF90      		pop r11
 6293 23f2 AF90      		pop r10
 6294 23f4 0895      		ret
 6295               	.LFE141:
 6297               	.global	_Z11get_headingP6vectorS0_S0_
 6299               	_Z11get_headingP6vectorS0_S0_:
 6300               	.LFB133:
 6301               	.LM892:
 6302               	.LVL221:
 6303 23f6 2F92      		push r2
 6304 23f8 3F92      		push r3
 6305 23fa 4F92      		push r4
 6306 23fc 5F92      		push r5
 6307 23fe 6F92      		push r6
 6308 2400 7F92      		push r7
 6309 2402 8F92      		push r8
 6310 2404 9F92      		push r9
 6311 2406 AF92      		push r10
 6312 2408 BF92      		push r11
 6313 240a CF92      		push r12
 6314 240c DF92      		push r13
 6315 240e EF92      		push r14
 6316 2410 FF92      		push r15
 6317 2412 0F93      		push r16
 6318 2414 1F93      		push r17
 6319 2416 DF93      		push r29
 6320 2418 CF93      		push r28
 6321 241a CDB7      		in r28,__SP_L__
 6322 241c DEB7      		in r29,__SP_H__
 6323 241e 6C97      		sbiw r28,28
 6324 2420 0FB6      		in __tmp_reg__,__SREG__
 6325 2422 F894      		cli
 6326 2424 DEBF      		out __SP_H__,r29
 6327 2426 0FBE      		out __SREG__,__tmp_reg__
 6328 2428 CDBF      		out __SP_L__,r28
 6329               	/* prologue: function */
 6330               	/* frame size = 28 */
 6331 242a 3C01      		movw r6,r24
 6332 242c 4B01      		movw r8,r22
 6333 242e 2A01      		movw r4,r20
 6334               	.LBB699:
 6335               	.LM893:
 6336 2430 E090 0000 		lds r14,m_min
 6337 2434 F090 0000 		lds r15,(m_min)+1
 6338 2438 0091 0000 		lds r16,(m_min)+2
 6339 243c 1091 0000 		lds r17,(m_min)+3
 6340 2440 DB01      		movw r26,r22
 6341 2442 6D91      		ld r22,X+
 6342 2444 7D91      		ld r23,X+
 6343 2446 8D91      		ld r24,X+
 6344 2448 9C91      		ld r25,X
 6345               	.LVL222:
 6346 244a A801      		movw r20,r16
 6347 244c 9701      		movw r18,r14
 6348 244e 0E94 0000 		call __subsf3
 6349               	.LVL223:
 6350 2452 5B01      		movw r10,r22
 6351 2454 6C01      		movw r12,r24
 6352 2456 6091 0000 		lds r22,m_max
 6353 245a 7091 0000 		lds r23,(m_max)+1
 6354 245e 8091 0000 		lds r24,(m_max)+2
 6355 2462 9091 0000 		lds r25,(m_max)+3
 6356 2466 A801      		movw r20,r16
 6357 2468 9701      		movw r18,r14
 6358 246a 0E94 0000 		call __subsf3
 6359 246e 9B01      		movw r18,r22
 6360 2470 AC01      		movw r20,r24
 6361 2472 C601      		movw r24,r12
 6362 2474 B501      		movw r22,r10
 6363 2476 0E94 0000 		call __divsf3
 6364 247a 9B01      		movw r18,r22
 6365 247c AC01      		movw r20,r24
 6366 247e 0E94 0000 		call __addsf3
 6367 2482 20E0      		ldi r18,lo8(0x3f800000)
 6368 2484 30E0      		ldi r19,hi8(0x3f800000)
 6369 2486 40E8      		ldi r20,hlo8(0x3f800000)
 6370 2488 5FE3      		ldi r21,hhi8(0x3f800000)
 6371 248a 0E94 0000 		call __subsf3
 6372 248e F401      		movw r30,r8
 6373 2490 6083      		st Z,r22
 6374 2492 7183      		std Z+1,r23
 6375 2494 8283      		std Z+2,r24
 6376 2496 9383      		std Z+3,r25
 6377               	.LM894:
 6378 2498 E090 0000 		lds r14,m_min+4
 6379 249c F090 0000 		lds r15,(m_min+4)+1
 6380 24a0 0091 0000 		lds r16,(m_min+4)+2
 6381 24a4 1091 0000 		lds r17,(m_min+4)+3
 6382 24a8 6481      		ldd r22,Z+4
 6383 24aa 7581      		ldd r23,Z+5
 6384 24ac 8681      		ldd r24,Z+6
 6385 24ae 9781      		ldd r25,Z+7
 6386 24b0 A801      		movw r20,r16
 6387 24b2 9701      		movw r18,r14
 6388 24b4 0E94 0000 		call __subsf3
 6389 24b8 5B01      		movw r10,r22
 6390 24ba 6C01      		movw r12,r24
 6391 24bc 6091 0000 		lds r22,m_max+4
 6392 24c0 7091 0000 		lds r23,(m_max+4)+1
 6393 24c4 8091 0000 		lds r24,(m_max+4)+2
 6394 24c8 9091 0000 		lds r25,(m_max+4)+3
 6395 24cc A801      		movw r20,r16
 6396 24ce 9701      		movw r18,r14
 6397 24d0 0E94 0000 		call __subsf3
 6398 24d4 9B01      		movw r18,r22
 6399 24d6 AC01      		movw r20,r24
 6400 24d8 C601      		movw r24,r12
 6401 24da B501      		movw r22,r10
 6402 24dc 0E94 0000 		call __divsf3
 6403 24e0 9B01      		movw r18,r22
 6404 24e2 AC01      		movw r20,r24
 6405 24e4 0E94 0000 		call __addsf3
 6406 24e8 20E0      		ldi r18,lo8(0x3f800000)
 6407 24ea 30E0      		ldi r19,hi8(0x3f800000)
 6408 24ec 40E8      		ldi r20,hlo8(0x3f800000)
 6409 24ee 5FE3      		ldi r21,hhi8(0x3f800000)
 6410 24f0 0E94 0000 		call __subsf3
 6411 24f4 D401      		movw r26,r8
 6412 24f6 1496      		adiw r26,4
 6413 24f8 6D93      		st X+,r22
 6414 24fa 7D93      		st X+,r23
 6415 24fc 8D93      		st X+,r24
 6416 24fe 9C93      		st X,r25
 6417 2500 1797      		sbiw r26,4+3
 6418               	.LM895:
 6419 2502 E090 0000 		lds r14,m_min+8
 6420 2506 F090 0000 		lds r15,(m_min+8)+1
 6421 250a 0091 0000 		lds r16,(m_min+8)+2
 6422 250e 1091 0000 		lds r17,(m_min+8)+3
 6423 2512 1896      		adiw r26,8
 6424 2514 6D91      		ld r22,X+
 6425 2516 7D91      		ld r23,X+
 6426 2518 8D91      		ld r24,X+
 6427 251a 9C91      		ld r25,X
 6428 251c 1B97      		sbiw r26,8+3
 6429 251e A801      		movw r20,r16
 6430 2520 9701      		movw r18,r14
 6431 2522 0E94 0000 		call __subsf3
 6432 2526 5B01      		movw r10,r22
 6433 2528 6C01      		movw r12,r24
 6434 252a 6091 0000 		lds r22,m_max+8
 6435 252e 7091 0000 		lds r23,(m_max+8)+1
 6436 2532 8091 0000 		lds r24,(m_max+8)+2
 6437 2536 9091 0000 		lds r25,(m_max+8)+3
 6438 253a A801      		movw r20,r16
 6439 253c 9701      		movw r18,r14
 6440 253e 0E94 0000 		call __subsf3
 6441 2542 9B01      		movw r18,r22
 6442 2544 AC01      		movw r20,r24
 6443 2546 C601      		movw r24,r12
 6444 2548 B501      		movw r22,r10
 6445 254a 0E94 0000 		call __divsf3
 6446 254e 9B01      		movw r18,r22
 6447 2550 AC01      		movw r20,r24
 6448 2552 0E94 0000 		call __addsf3
 6449 2556 20E0      		ldi r18,lo8(0x3f800000)
 6450 2558 30E0      		ldi r19,hi8(0x3f800000)
 6451 255a 40E8      		ldi r20,hlo8(0x3f800000)
 6452 255c 5FE3      		ldi r21,hhi8(0x3f800000)
 6453 255e 0E94 0000 		call __subsf3
 6454 2562 F401      		movw r30,r8
 6455 2564 6087      		std Z+8,r22
 6456 2566 7187      		std Z+9,r23
 6457 2568 8287      		std Z+10,r24
 6458 256a 9387      		std Z+11,r25
 6459               	.LM896:
 6460 256c C401      		movw r24,r8
 6461 256e B301      		movw r22,r6
 6462 2570 8E01      		movw r16,r28
 6463 2572 0F5F      		subi r16,lo8(-(1))
 6464 2574 1F4F      		sbci r17,hi8(-(1))
 6465 2576 A801      		movw r20,r16
 6466 2578 0E94 0000 		call _Z12vector_crossPK6vectorS1_PS_
 6467               	.LM897:
 6468 257c C801      		movw r24,r16
 6469 257e 0E94 0000 		call _Z16vector_normalizeP6vector
 6470               	.LM898:
 6471 2582 FDE0      		ldi r31,lo8(13)
 6472 2584 EF2E      		mov r14,r31
 6473 2586 F12C      		mov r15,__zero_reg__
 6474 2588 EC0E      		add r14,r28
 6475 258a FD1E      		adc r15,r29
 6476 258c C301      		movw r24,r6
 6477 258e B801      		movw r22,r16
 6478 2590 A701      		movw r20,r14
 6479 2592 0E94 0000 		call _Z12vector_crossPK6vectorS1_PS_
 6480               	.LM899:
 6481 2596 C701      		movw r24,r14
 6482 2598 0E94 0000 		call _Z16vector_normalizeP6vector
 6483               	.LBB700:
 6484               	.LBB701:
 6485               	.LM900:
 6486 259c D201      		movw r26,r4
 6487 259e AD90      		ld r10,X+
 6488 25a0 BD90      		ld r11,X+
 6489 25a2 CD90      		ld r12,X+
 6490 25a4 DC90      		ld r13,X
 6491 25a6 1397      		sbiw r26,3
 6492 25a8 1496      		adiw r26,4
 6493 25aa 6D90      		ld r6,X+
 6494 25ac 7D90      		ld r7,X+
 6495 25ae 8D90      		ld r8,X+
 6496 25b0 9C90      		ld r9,X
 6497 25b2 1797      		sbiw r26,4+3
 6498               	.LVL224:
 6499 25b4 1896      		adiw r26,8
 6500 25b6 8D91      		ld r24,X+
 6501 25b8 9D91      		ld r25,X+
 6502 25ba 0D90      		ld __tmp_reg__,X+
 6503 25bc BC91      		ld r27,X
 6504 25be A02D      		mov r26,__tmp_reg__
 6505 25c0 898F      		std Y+25,r24
 6506 25c2 9A8F      		std Y+26,r25
 6507 25c4 AB8F      		std Y+27,r26
 6508 25c6 BC8F      		std Y+28,r27
 6509               	.LBE701:
 6510               	.LBE700:
 6511               	.LM901:
 6512 25c8 C601      		movw r24,r12
 6513 25ca B501      		movw r22,r10
 6514 25cc 2981      		ldd r18,Y+1
 6515 25ce 3A81      		ldd r19,Y+2
 6516 25d0 4B81      		ldd r20,Y+3
 6517 25d2 5C81      		ldd r21,Y+4
 6518 25d4 0E94 0000 		call __mulsf3
 6519 25d8 7B01      		movw r14,r22
 6520 25da 8C01      		movw r16,r24
 6521 25dc C401      		movw r24,r8
 6522 25de B301      		movw r22,r6
 6523 25e0 2D81      		ldd r18,Y+5
 6524 25e2 3E81      		ldd r19,Y+6
 6525 25e4 4F81      		ldd r20,Y+7
 6526 25e6 5885      		ldd r21,Y+8
 6527 25e8 0E94 0000 		call __mulsf3
 6528 25ec 9B01      		movw r18,r22
 6529 25ee AC01      		movw r20,r24
 6530 25f0 C801      		movw r24,r16
 6531 25f2 B701      		movw r22,r14
 6532 25f4 0E94 0000 		call __addsf3
 6533 25f8 7B01      		movw r14,r22
 6534 25fa 8C01      		movw r16,r24
 6535 25fc 698D      		ldd r22,Y+25
 6536 25fe 7A8D      		ldd r23,Y+26
 6537 2600 8B8D      		ldd r24,Y+27
 6538 2602 9C8D      		ldd r25,Y+28
 6539 2604 2985      		ldd r18,Y+9
 6540 2606 3A85      		ldd r19,Y+10
 6541 2608 4B85      		ldd r20,Y+11
 6542 260a 5C85      		ldd r21,Y+12
 6543 260c 0E94 0000 		call __mulsf3
 6544 2610 9B01      		movw r18,r22
 6545 2612 AC01      		movw r20,r24
 6546 2614 C801      		movw r24,r16
 6547 2616 B701      		movw r22,r14
 6548 2618 0E94 0000 		call __addsf3
 6549 261c 1B01      		movw r2,r22
 6550 261e 2C01      		movw r4,r24
 6551 2620 C601      		movw r24,r12
 6552 2622 B501      		movw r22,r10
 6553 2624 2D85      		ldd r18,Y+13
 6554 2626 3E85      		ldd r19,Y+14
 6555 2628 4F85      		ldd r20,Y+15
 6556 262a 5889      		ldd r21,Y+16
 6557 262c 0E94 0000 		call __mulsf3
 6558 2630 7B01      		movw r14,r22
 6559 2632 8C01      		movw r16,r24
 6560 2634 C401      		movw r24,r8
 6561 2636 B301      		movw r22,r6
 6562 2638 2989      		ldd r18,Y+17
 6563 263a 3A89      		ldd r19,Y+18
 6564 263c 4B89      		ldd r20,Y+19
 6565 263e 5C89      		ldd r21,Y+20
 6566 2640 0E94 0000 		call __mulsf3
 6567 2644 9B01      		movw r18,r22
 6568 2646 AC01      		movw r20,r24
 6569 2648 C801      		movw r24,r16
 6570 264a B701      		movw r22,r14
 6571 264c 0E94 0000 		call __addsf3
 6572 2650 7B01      		movw r14,r22
 6573 2652 8C01      		movw r16,r24
 6574 2654 698D      		ldd r22,Y+25
 6575 2656 7A8D      		ldd r23,Y+26
 6576 2658 8B8D      		ldd r24,Y+27
 6577 265a 9C8D      		ldd r25,Y+28
 6578 265c 2D89      		ldd r18,Y+21
 6579 265e 3E89      		ldd r19,Y+22
 6580 2660 4F89      		ldd r20,Y+23
 6581 2662 588D      		ldd r21,Y+24
 6582 2664 0E94 0000 		call __mulsf3
 6583 2668 9B01      		movw r18,r22
 6584 266a AC01      		movw r20,r24
 6585 266c C801      		movw r24,r16
 6586 266e B701      		movw r22,r14
 6587 2670 0E94 0000 		call __addsf3
 6588 2674 9B01      		movw r18,r22
 6589 2676 AC01      		movw r20,r24
 6590 2678 C201      		movw r24,r4
 6591 267a B101      		movw r22,r2
 6592 267c 0E94 0000 		call atan2
 6593 2680 20E0      		ldi r18,lo8(0x43340000)
 6594 2682 30E0      		ldi r19,hi8(0x43340000)
 6595 2684 44E3      		ldi r20,hlo8(0x43340000)
 6596 2686 53E4      		ldi r21,hhi8(0x43340000)
 6597 2688 0E94 0000 		call __mulsf3
 6598 268c 2BED      		ldi r18,lo8(0x40490fdb)
 6599 268e 3FE0      		ldi r19,hi8(0x40490fdb)
 6600 2690 49E4      		ldi r20,hlo8(0x40490fdb)
 6601 2692 50E4      		ldi r21,hhi8(0x40490fdb)
 6602 2694 0E94 0000 		call __divsf3
 6603 2698 0E94 0000 		call round
 6604 269c 7B01      		movw r14,r22
 6605 269e 8C01      		movw r16,r24
 6606               	.LVL225:
 6607               	.LM902:
 6608 26a0 20E0      		ldi r18,lo8(0x43340000)
 6609 26a2 30E0      		ldi r19,hi8(0x43340000)
 6610 26a4 44E3      		ldi r20,hlo8(0x43340000)
 6611 26a6 53E4      		ldi r21,hhi8(0x43340000)
 6612 26a8 0E94 0000 		call __gtsf2
 6613 26ac 1816      		cp __zero_reg__,r24
 6614 26ae 04F4      		brge .L150
 6615               	.LM903:
 6616 26b0 C801      		movw r24,r16
 6617 26b2 B701      		movw r22,r14
 6618 26b4 20E0      		ldi r18,lo8(0x43b40000)
 6619 26b6 30E0      		ldi r19,hi8(0x43b40000)
 6620 26b8 44EB      		ldi r20,hlo8(0x43b40000)
 6621 26ba 53E4      		ldi r21,hhi8(0x43b40000)
 6622 26bc 0E94 0000 		call __subsf3
 6623 26c0 7B01      		movw r14,r22
 6624 26c2 8C01      		movw r16,r24
 6625               	.L150:
 6626               	.LM904:
 6627 26c4 C801      		movw r24,r16
 6628 26c6 B701      		movw r22,r14
 6629 26c8 20E0      		ldi r18,lo8(0xc3340000)
 6630 26ca 30E0      		ldi r19,hi8(0xc3340000)
 6631 26cc 44E3      		ldi r20,hlo8(0xc3340000)
 6632 26ce 53EC      		ldi r21,hhi8(0xc3340000)
 6633 26d0 0E94 0000 		call __ltsf2
 6634 26d4 8823      		tst r24
 6635 26d6 04F4      		brge .L152
 6636               	.LM905:
 6637 26d8 C801      		movw r24,r16
 6638 26da B701      		movw r22,r14
 6639 26dc 20E0      		ldi r18,lo8(0x43b40000)
 6640 26de 30E0      		ldi r19,hi8(0x43b40000)
 6641 26e0 44EB      		ldi r20,hlo8(0x43b40000)
 6642 26e2 53E4      		ldi r21,hhi8(0x43b40000)
 6643 26e4 0E94 0000 		call __addsf3
 6644 26e8 7B01      		movw r14,r22
 6645 26ea 8C01      		movw r16,r24
 6646               	.L152:
 6647               	.LBE699:
 6648               	.LM906:
 6649 26ec B701      		movw r22,r14
 6650               	.LVL226:
 6651 26ee C801      		movw r24,r16
 6652               	/* epilogue start */
 6653 26f0 6C96      		adiw r28,28
 6654 26f2 0FB6      		in __tmp_reg__,__SREG__
 6655 26f4 F894      		cli
 6656 26f6 DEBF      		out __SP_H__,r29
 6657 26f8 0FBE      		out __SREG__,__tmp_reg__
 6658 26fa CDBF      		out __SP_L__,r28
 6659 26fc CF91      		pop r28
 6660 26fe DF91      		pop r29
 6661 2700 1F91      		pop r17
 6662 2702 0F91      		pop r16
 6663 2704 FF90      		pop r15
 6664 2706 EF90      		pop r14
 6665 2708 DF90      		pop r13
 6666 270a CF90      		pop r12
 6667 270c BF90      		pop r11
 6668 270e AF90      		pop r10
 6669 2710 9F90      		pop r9
 6670 2712 8F90      		pop r8
 6671               	.LVL227:
 6672 2714 7F90      		pop r7
 6673 2716 6F90      		pop r6
 6674 2718 5F90      		pop r5
 6675 271a 4F90      		pop r4
 6676               	.LVL228:
 6677 271c 3F90      		pop r3
 6678 271e 2F90      		pop r2
 6679 2720 0895      		ret
 6680               	.LFE133:
 6682               	.global	_Z30accelcompass_angle_acquisitionv
 6684               	_Z30accelcompass_angle_acquisitionv:
 6685               	.LFB142:
 6686               	.LM907:
 6687 2722 6F92      		push r6
 6688 2724 7F92      		push r7
 6689 2726 8F92      		push r8
 6690 2728 9F92      		push r9
 6691 272a AF92      		push r10
 6692 272c BF92      		push r11
 6693 272e CF92      		push r12
 6694 2730 DF92      		push r13
 6695 2732 EF92      		push r14
 6696 2734 FF92      		push r15
 6697 2736 0F93      		push r16
 6698 2738 1F93      		push r17
 6699 273a DF93      		push r29
 6700 273c CF93      		push r28
 6701 273e CDB7      		in r28,__SP_L__
 6702 2740 DEB7      		in r29,__SP_H__
 6703 2742 A497      		sbiw r28,36
 6704 2744 0FB6      		in __tmp_reg__,__SREG__
 6705 2746 F894      		cli
 6706 2748 DEBF      		out __SP_H__,r29
 6707 274a 0FBE      		out __SREG__,__tmp_reg__
 6708 274c CDBF      		out __SP_L__,r28
 6709               	/* prologue: function */
 6710               	/* frame size = 36 */
 6711 274e 3C01      		movw r6,r24
 6712               	.LBB702:
 6713               	.LM908:
 6714 2750 DE01      		movw r26,r28
 6715 2752 5996      		adiw r26,25
 6716 2754 E0E0      		ldi r30,lo8(_ZZ30accelcompass_angle_acquisitionvE4C.88)
 6717 2756 F0E0      		ldi r31,hi8(_ZZ30accelcompass_angle_acquisitionvE4C.88)
 6718 2758 8CE0      		ldi r24,lo8(12)
 6719               	.L158:
 6720 275a 0190      		ld r0,Z+
 6721 275c 0D92      		st X+,r0
 6722 275e 8150      		subi r24,lo8(-(-1))
 6723 2760 01F4      		brne .L158
 6724               	.LM909:
 6725 2762 8E01      		movw r16,r28
 6726 2764 035F      		subi r16,lo8(-(13))
 6727 2766 1F4F      		sbci r17,hi8(-(13))
 6728 2768 7E01      		movw r14,r28
 6729 276a 0894      		sec
 6730 276c E11C      		adc r14,__zero_reg__
 6731 276e F11C      		adc r15,__zero_reg__
 6732 2770 C701      		movw r24,r14
 6733 2772 B801      		movw r22,r16
 6734 2774 0E94 0000 		call _Z17compass_read_dataP6vectorS0_
 6735               	.LM910:
 6736 2778 C701      		movw r24,r14
 6737 277a B801      		movw r22,r16
 6738 277c AE01      		movw r20,r28
 6739 277e 475E      		subi r20,lo8(-(25))
 6740 2780 5F4F      		sbci r21,hi8(-(25))
 6741 2782 0E94 0000 		call _Z11get_headingP6vectorS0_S0_
 6742 2786 4B01      		movw r8,r22
 6743 2788 5C01      		movw r10,r24
 6744               	.LVL229:
 6745               	.LM911:
 6746 278a C701      		movw r24,r14
 6747 278c 0E94 0000 		call _Z7accel_gP6vector
 6748               	.LM912:
 6749 2790 C301      		movw r24,r6
 6750 2792 C980      		ldd r12,Y+1
 6751 2794 DA80      		ldd r13,Y+2
 6752 2796 EB80      		ldd r14,Y+3
 6753 2798 FC80      		ldd r15,Y+4
 6754 279a 0D81      		ldd r16,Y+5
 6755 279c 1E81      		ldd r17,Y+6
 6756 279e 2F81      		ldd r18,Y+7
 6757 27a0 3885      		ldd r19,Y+8
 6758 27a2 4985      		ldd r20,Y+9
 6759 27a4 5A85      		ldd r21,Y+10
 6760 27a6 6B85      		ldd r22,Y+11
 6761 27a8 7C85      		ldd r23,Y+12
 6762 27aa 0E94 0000 		call _Z11accel_angle6vector
 6763               	.LM913:
 6764 27ae F301      		movw r30,r6
 6765 27b0 8086      		std Z+8,r8
 6766 27b2 9186      		std Z+9,r9
 6767 27b4 A286      		std Z+10,r10
 6768 27b6 B386      		std Z+11,r11
 6769               	.LBE702:
 6770               	.LM914:
 6771 27b8 C301      		movw r24,r6
 6772               	/* epilogue start */
 6773 27ba A496      		adiw r28,36
 6774 27bc 0FB6      		in __tmp_reg__,__SREG__
 6775 27be F894      		cli
 6776 27c0 DEBF      		out __SP_H__,r29
 6777 27c2 0FBE      		out __SREG__,__tmp_reg__
 6778 27c4 CDBF      		out __SP_L__,r28
 6779 27c6 CF91      		pop r28
 6780 27c8 DF91      		pop r29
 6781 27ca 1F91      		pop r17
 6782 27cc 0F91      		pop r16
 6783 27ce FF90      		pop r15
 6784 27d0 EF90      		pop r14
 6785 27d2 DF90      		pop r13
 6786 27d4 CF90      		pop r12
 6787 27d6 BF90      		pop r11
 6788 27d8 AF90      		pop r10
 6789 27da 9F90      		pop r9
 6790 27dc 8F90      		pop r8
 6791               	.LVL230:
 6792 27de 7F90      		pop r7
 6793 27e0 6F90      		pop r6
 6794 27e2 0895      		ret
 6795               	.LFE142:
 6797               		.data
 6798               	.LC9:
 6799 00dc 4D6F 7665 		.string	"Movement Left\n"
 6799      6D65 6E74 
 6799      204C 6566 
 6799      740A 00
 6800               	.LC10:
 6801 00eb 4D6F 7665 		.string	"Movement Right\n"
 6801      6D65 6E74 
 6801      2052 6967 
 6801      6874 0A00 
 6802               	.LC11:
 6803 00fb 4D6F 7665 		.string	"Movement Down\n"
 6803      6D65 6E74 
 6803      2044 6F77 
 6803      6E0A 00
 6804               	.LC12:
 6805 010a 4D6F 7665 		.string	"Movement Up\n"
 6805      6D65 6E74 
 6805      2055 700A 
 6805      00
 6806               	.LC13:
 6807 0117 5469 6C74 		.string	"Tilt Left\n"
 6807      204C 6566 
 6807      740A 00
 6808               	.LC14:
 6809 0122 5469 6C74 		.string	"Tilt Right\n"
 6809      2052 6967 
 6809      6874 0A00 
 6810               		.text
 6811               	.global	_Z6filterv
 6813               	_Z6filterv:
 6814               	.LFB154:
 6815               	.LM915:
 6816 27e4 AF92      		push r10
 6817 27e6 BF92      		push r11
 6818 27e8 CF92      		push r12
 6819 27ea DF92      		push r13
 6820 27ec EF92      		push r14
 6821 27ee FF92      		push r15
 6822 27f0 0F93      		push r16
 6823 27f2 1F93      		push r17
 6824 27f4 DF93      		push r29
 6825 27f6 CF93      		push r28
 6826 27f8 CDB7      		in r28,__SP_L__
 6827 27fa DEB7      		in r29,__SP_H__
 6828 27fc 2C97      		sbiw r28,12
 6829 27fe 0FB6      		in __tmp_reg__,__SREG__
 6830 2800 F894      		cli
 6831 2802 DEBF      		out __SP_H__,r29
 6832 2804 0FBE      		out __SREG__,__tmp_reg__
 6833 2806 CDBF      		out __SP_L__,r28
 6834               	/* prologue: function */
 6835               	/* frame size = 12 */
 6836               	.LM916:
 6837 2808 8E01      		movw r16,r28
 6838 280a 0F5F      		subi r16,lo8(-(1))
 6839 280c 1F4F      		sbci r17,hi8(-(1))
 6840 280e C801      		movw r24,r16
 6841 2810 0E94 0000 		call _Z30accelcompass_angle_acquisitionv
 6842 2814 A0E0      		ldi r26,lo8(anglesAccel)
 6843 2816 B0E0      		ldi r27,hi8(anglesAccel)
 6844 2818 F801      		movw r30,r16
 6845 281a 8CE0      		ldi r24,lo8(12)
 6846               	.L162:
 6847 281c 0190      		ld r0,Z+
 6848 281e 0D92      		st X+,r0
 6849 2820 8150      		subi r24,lo8(-(-1))
 6850 2822 01F4      		brne .L162
 6851               	.LM917:
 6852 2824 8E01      		movw r16,r28
 6853 2826 0F5F      		subi r16,lo8(-(1))
 6854 2828 1F4F      		sbci r17,hi8(-(1))
 6855 282a C801      		movw r24,r16
 6856 282c 0E94 0000 		call _Z22gyro_angle_acquisitionv
 6857 2830 A0E0      		ldi r26,lo8(anglesGyro)
 6858 2832 B0E0      		ldi r27,hi8(anglesGyro)
 6859 2834 F801      		movw r30,r16
 6860 2836 8CE0      		ldi r24,lo8(12)
 6861               	.L163:
 6862 2838 0190      		ld r0,Z+
 6863 283a 0D92      		st X+,r0
 6864 283c 8150      		subi r24,lo8(-(-1))
 6865 283e 01F4      		brne .L163
 6866               	.LM918:
 6867 2840 6091 0000 		lds r22,anglesOutput
 6868 2844 7091 0000 		lds r23,(anglesOutput)+1
 6869 2848 8091 0000 		lds r24,(anglesOutput)+2
 6870 284c 9091 0000 		lds r25,(anglesOutput)+3
 6871 2850 2091 0000 		lds r18,anglesGyro
 6872 2854 3091 0000 		lds r19,(anglesGyro)+1
 6873 2858 4091 0000 		lds r20,(anglesGyro)+2
 6874 285c 5091 0000 		lds r21,(anglesGyro)+3
 6875 2860 0E94 0000 		call __addsf3
 6876 2864 6093 0000 		sts anglesOutput,r22
 6877 2868 7093 0000 		sts (anglesOutput)+1,r23
 6878 286c 8093 0000 		sts (anglesOutput)+2,r24
 6879 2870 9093 0000 		sts (anglesOutput)+3,r25
 6880               	.LM919:
 6881 2874 6091 0000 		lds r22,anglesOutput+4
 6882 2878 7091 0000 		lds r23,(anglesOutput+4)+1
 6883 287c 8091 0000 		lds r24,(anglesOutput+4)+2
 6884 2880 9091 0000 		lds r25,(anglesOutput+4)+3
 6885 2884 2091 0000 		lds r18,anglesGyro+4
 6886 2888 3091 0000 		lds r19,(anglesGyro+4)+1
 6887 288c 4091 0000 		lds r20,(anglesGyro+4)+2
 6888 2890 5091 0000 		lds r21,(anglesGyro+4)+3
 6889 2894 0E94 0000 		call __addsf3
 6890 2898 6093 0000 		sts anglesOutput+4,r22
 6891 289c 7093 0000 		sts (anglesOutput+4)+1,r23
 6892 28a0 8093 0000 		sts (anglesOutput+4)+2,r24
 6893 28a4 9093 0000 		sts (anglesOutput+4)+3,r25
 6894               	.LM920:
 6895 28a8 6091 0000 		lds r22,anglesOutput+8
 6896 28ac 7091 0000 		lds r23,(anglesOutput+8)+1
 6897 28b0 8091 0000 		lds r24,(anglesOutput+8)+2
 6898 28b4 9091 0000 		lds r25,(anglesOutput+8)+3
 6899 28b8 2091 0000 		lds r18,anglesGyro+8
 6900 28bc 3091 0000 		lds r19,(anglesGyro+8)+1
 6901 28c0 4091 0000 		lds r20,(anglesGyro+8)+2
 6902 28c4 5091 0000 		lds r21,(anglesGyro+8)+3
 6903 28c8 0E94 0000 		call __addsf3
 6904 28cc 6093 0000 		sts anglesOutput+8,r22
 6905 28d0 7093 0000 		sts (anglesOutput+8)+1,r23
 6906 28d4 8093 0000 		sts (anglesOutput+8)+2,r24
 6907 28d8 9093 0000 		sts (anglesOutput+8)+3,r25
 6908               	.LM921:
 6909 28dc 8091 0000 		lds r24,anglesAccel
 6910 28e0 9091 0000 		lds r25,(anglesAccel)+1
 6911 28e4 A091 0000 		lds r26,(anglesAccel)+2
 6912 28e8 B091 0000 		lds r27,(anglesAccel)+3
 6913 28ec 5C01      		movw r10,r24
 6914 28ee 6D01      		movw r12,r26
 6915 28f0 D7FA      		bst r13,7
 6916 28f2 D094      		com r13
 6917 28f4 D7F8      		bld r13,7
 6918 28f6 D094      		com r13
 6919 28f8 A092 0000 		sts anglesAccel,r10
 6920 28fc B092 0000 		sts (anglesAccel)+1,r11
 6921 2900 C092 0000 		sts (anglesAccel)+2,r12
 6922 2904 D092 0000 		sts (anglesAccel)+3,r13
 6923               	.LM922:
 6924 2908 6091 0000 		lds r22,anglesAccel+8
 6925 290c 7091 0000 		lds r23,(anglesAccel+8)+1
 6926 2910 8091 0000 		lds r24,(anglesAccel+8)+2
 6927 2914 9091 0000 		lds r25,(anglesAccel+8)+3
 6928 2918 2091 0000 		lds r18,initialAngles+8
 6929 291c 3091 0000 		lds r19,(initialAngles+8)+1
 6930 2920 4091 0000 		lds r20,(initialAngles+8)+2
 6931 2924 5091 0000 		lds r21,(initialAngles+8)+3
 6932 2928 0E94 0000 		call __subsf3
 6933 292c 7B01      		movw r14,r22
 6934 292e 8C01      		movw r16,r24
 6935 2930 20E0      		ldi r18,lo8(0xc1700000)
 6936 2932 30E0      		ldi r19,hi8(0xc1700000)
 6937 2934 40E7      		ldi r20,hlo8(0xc1700000)
 6938 2936 51EC      		ldi r21,hhi8(0xc1700000)
 6939 2938 0E94 0000 		call __lesf2
 6940 293c 1816      		cp __zero_reg__,r24
 6941 293e 04F0      		brlt .L187
 6942               	.LM923:
 6943 2940 00D0      		rcall .
 6944 2942 00D0      		rcall .
 6945 2944 80E0      		ldi r24,lo8(_ZL15USBSerialStream)
 6946 2946 90E0      		ldi r25,hi8(_ZL15USBSerialStream)
 6947 2948 EDB7      		in r30,__SP_L__
 6948 294a FEB7      		in r31,__SP_H__
 6949 294c 9283      		std Z+2,r25
 6950 294e 8183      		std Z+1,r24
 6951 2950 80E0      		ldi r24,lo8(.LC9)
 6952 2952 90E0      		ldi r25,hi8(.LC9)
 6953 2954 00C0      		rjmp .L191
 6954               	.L187:
 6955               	.LM924:
 6956 2956 C801      		movw r24,r16
 6957 2958 B701      		movw r22,r14
 6958 295a 20E0      		ldi r18,lo8(0x41700000)
 6959 295c 30E0      		ldi r19,hi8(0x41700000)
 6960 295e 40E7      		ldi r20,hlo8(0x41700000)
 6961 2960 51E4      		ldi r21,hhi8(0x41700000)
 6962 2962 0E94 0000 		call __gesf2
 6963 2966 8823      		tst r24
 6964 2968 04F0      		brlt .L188
 6965               	.LM925:
 6966 296a 00D0      		rcall .
 6967 296c 00D0      		rcall .
 6968 296e 80E0      		ldi r24,lo8(_ZL15USBSerialStream)
 6969 2970 90E0      		ldi r25,hi8(_ZL15USBSerialStream)
 6970 2972 EDB7      		in r30,__SP_L__
 6971 2974 FEB7      		in r31,__SP_H__
 6972 2976 9283      		std Z+2,r25
 6973 2978 8183      		std Z+1,r24
 6974 297a 80E0      		ldi r24,lo8(.LC10)
 6975 297c 90E0      		ldi r25,hi8(.LC10)
 6976 297e 00C0      		rjmp .L191
 6977               	.L188:
 6978               	.LM926:
 6979 2980 6091 0000 		lds r22,anglesAccel+4
 6980 2984 7091 0000 		lds r23,(anglesAccel+4)+1
 6981 2988 8091 0000 		lds r24,(anglesAccel+4)+2
 6982 298c 9091 0000 		lds r25,(anglesAccel+4)+3
 6983 2990 2091 0000 		lds r18,initialAngles+4
 6984 2994 3091 0000 		lds r19,(initialAngles+4)+1
 6985 2998 4091 0000 		lds r20,(initialAngles+4)+2
 6986 299c 5091 0000 		lds r21,(initialAngles+4)+3
 6987 29a0 0E94 0000 		call __subsf3
 6988 29a4 7B01      		movw r14,r22
 6989 29a6 8C01      		movw r16,r24
 6990 29a8 20E0      		ldi r18,lo8(0x41700000)
 6991 29aa 30E0      		ldi r19,hi8(0x41700000)
 6992 29ac 40E7      		ldi r20,hlo8(0x41700000)
 6993 29ae 51E4      		ldi r21,hhi8(0x41700000)
 6994 29b0 0E94 0000 		call __gesf2
 6995 29b4 8823      		tst r24
 6996 29b6 04F0      		brlt .L189
 6997               	.LM927:
 6998 29b8 00D0      		rcall .
 6999 29ba 00D0      		rcall .
 7000 29bc 80E0      		ldi r24,lo8(_ZL15USBSerialStream)
 7001 29be 90E0      		ldi r25,hi8(_ZL15USBSerialStream)
 7002 29c0 EDB7      		in r30,__SP_L__
 7003 29c2 FEB7      		in r31,__SP_H__
 7004 29c4 9283      		std Z+2,r25
 7005 29c6 8183      		std Z+1,r24
 7006 29c8 80E0      		ldi r24,lo8(.LC11)
 7007 29ca 90E0      		ldi r25,hi8(.LC11)
 7008 29cc 00C0      		rjmp .L191
 7009               	.L189:
 7010               	.LM928:
 7011 29ce C801      		movw r24,r16
 7012 29d0 B701      		movw r22,r14
 7013 29d2 20E0      		ldi r18,lo8(0xc1700000)
 7014 29d4 30E0      		ldi r19,hi8(0xc1700000)
 7015 29d6 40E7      		ldi r20,hlo8(0xc1700000)
 7016 29d8 51EC      		ldi r21,hhi8(0xc1700000)
 7017 29da 0E94 0000 		call __lesf2
 7018 29de 1816      		cp __zero_reg__,r24
 7019 29e0 04F0      		brlt .L171
 7020 29e2 C801      		movw r24,r16
 7021 29e4 B701      		movw r22,r14
 7022 29e6 20E0      		ldi r18,lo8(0xc2c80000)
 7023 29e8 30E0      		ldi r19,hi8(0xc2c80000)
 7024 29ea 48EC      		ldi r20,hlo8(0xc2c80000)
 7025 29ec 52EC      		ldi r21,hhi8(0xc2c80000)
 7026 29ee 0E94 0000 		call __gesf2
 7027 29f2 8823      		tst r24
 7028 29f4 04F0      		brlt .L171
 7029               	.LM929:
 7030 29f6 00D0      		rcall .
 7031 29f8 00D0      		rcall .
 7032 29fa 80E0      		ldi r24,lo8(_ZL15USBSerialStream)
 7033 29fc 90E0      		ldi r25,hi8(_ZL15USBSerialStream)
 7034 29fe EDB7      		in r30,__SP_L__
 7035 2a00 FEB7      		in r31,__SP_H__
 7036 2a02 9283      		std Z+2,r25
 7037 2a04 8183      		std Z+1,r24
 7038 2a06 80E0      		ldi r24,lo8(.LC12)
 7039 2a08 90E0      		ldi r25,hi8(.LC12)
 7040 2a0a 00C0      		rjmp .L191
 7041               	.L171:
 7042               	.LM930:
 7043 2a0c C601      		movw r24,r12
 7044 2a0e B501      		movw r22,r10
 7045 2a10 2091 0000 		lds r18,initialAngles
 7046 2a14 3091 0000 		lds r19,(initialAngles)+1
 7047 2a18 4091 0000 		lds r20,(initialAngles)+2
 7048 2a1c 5091 0000 		lds r21,(initialAngles)+3
 7049 2a20 0E94 0000 		call __subsf3
 7050 2a24 7B01      		movw r14,r22
 7051 2a26 8C01      		movw r16,r24
 7052 2a28 20E0      		ldi r18,lo8(0x41a00000)
 7053 2a2a 30E0      		ldi r19,hi8(0x41a00000)
 7054 2a2c 40EA      		ldi r20,hlo8(0x41a00000)
 7055 2a2e 51E4      		ldi r21,hhi8(0x41a00000)
 7056 2a30 0E94 0000 		call __gesf2
 7057 2a34 8823      		tst r24
 7058 2a36 04F0      		brlt .L190
 7059               	.LM931:
 7060 2a38 00D0      		rcall .
 7061 2a3a 00D0      		rcall .
 7062 2a3c 80E0      		ldi r24,lo8(_ZL15USBSerialStream)
 7063 2a3e 90E0      		ldi r25,hi8(_ZL15USBSerialStream)
 7064 2a40 EDB7      		in r30,__SP_L__
 7065 2a42 FEB7      		in r31,__SP_H__
 7066 2a44 9283      		std Z+2,r25
 7067 2a46 8183      		std Z+1,r24
 7068 2a48 80E0      		ldi r24,lo8(.LC13)
 7069 2a4a 90E0      		ldi r25,hi8(.LC13)
 7070 2a4c 00C0      		rjmp .L191
 7071               	.L190:
 7072               	.LM932:
 7073 2a4e C801      		movw r24,r16
 7074 2a50 B701      		movw r22,r14
 7075 2a52 20E0      		ldi r18,lo8(0xc1a00000)
 7076 2a54 30E0      		ldi r19,hi8(0xc1a00000)
 7077 2a56 40EA      		ldi r20,hlo8(0xc1a00000)
 7078 2a58 51EC      		ldi r21,hhi8(0xc1a00000)
 7079 2a5a 0E94 0000 		call __lesf2
 7080 2a5e 1816      		cp __zero_reg__,r24
 7081 2a60 04F0      		brlt .L177
 7082               	.LM933:
 7083 2a62 00D0      		rcall .
 7084 2a64 00D0      		rcall .
 7085 2a66 80E0      		ldi r24,lo8(_ZL15USBSerialStream)
 7086 2a68 90E0      		ldi r25,hi8(_ZL15USBSerialStream)
 7087 2a6a EDB7      		in r30,__SP_L__
 7088 2a6c FEB7      		in r31,__SP_H__
 7089 2a6e 9283      		std Z+2,r25
 7090 2a70 8183      		std Z+1,r24
 7091 2a72 80E0      		ldi r24,lo8(.LC14)
 7092 2a74 90E0      		ldi r25,hi8(.LC14)
 7093               	.L191:
 7094 2a76 9483      		std Z+4,r25
 7095 2a78 8383      		std Z+3,r24
 7096 2a7a 0E94 0000 		call fprintf
 7097 2a7e 0F90      		pop __tmp_reg__
 7098 2a80 0F90      		pop __tmp_reg__
 7099 2a82 0F90      		pop __tmp_reg__
 7100 2a84 0F90      		pop __tmp_reg__
 7101               	.L177:
 7102               	/* epilogue start */
 7103               	.LM934:
 7104 2a86 2C96      		adiw r28,12
 7105 2a88 0FB6      		in __tmp_reg__,__SREG__
 7106 2a8a F894      		cli
 7107 2a8c DEBF      		out __SP_H__,r29
 7108 2a8e 0FBE      		out __SREG__,__tmp_reg__
 7109 2a90 CDBF      		out __SP_L__,r28
 7110 2a92 CF91      		pop r28
 7111 2a94 DF91      		pop r29
 7112 2a96 1F91      		pop r17
 7113 2a98 0F91      		pop r16
 7114 2a9a FF90      		pop r15
 7115 2a9c EF90      		pop r14
 7116 2a9e DF90      		pop r13
 7117 2aa0 CF90      		pop r12
 7118 2aa2 BF90      		pop r11
 7119 2aa4 AF90      		pop r10
 7120 2aa6 0895      		ret
 7121               	.LFE154:
 7123               	.global	__vector_20
 7125               	__vector_20:
 7126               	.LFB155:
 7127               	.LM935:
 7128 2aa8 1F92      		push __zero_reg__
 7129 2aaa 0F92      		push r0
 7130 2aac 0FB6      		in r0,__SREG__
 7131 2aae 0F92      		push r0
 7132 2ab0 1124      		clr __zero_reg__
 7133 2ab2 2F93      		push r18
 7134 2ab4 3F93      		push r19
 7135 2ab6 4F93      		push r20
 7136 2ab8 5F93      		push r21
 7137 2aba 6F93      		push r22
 7138 2abc 7F93      		push r23
 7139 2abe 8F93      		push r24
 7140 2ac0 9F93      		push r25
 7141 2ac2 AF93      		push r26
 7142 2ac4 BF93      		push r27
 7143 2ac6 EF93      		push r30
 7144 2ac8 FF93      		push r31
 7145               	/* prologue: Signal */
 7146               	/* frame size = 0 */
 7147               	.LM936:
 7148 2aca 8091 0000 		lds r24,tcnt1
 7149 2ace 9091 0000 		lds r25,(tcnt1)+1
 7150 2ad2 9093 8500 		sts (132)+1,r25
 7151 2ad6 8093 8400 		sts 132,r24
 7152               	.LM937:
 7153               	/* #APP */
 7154               	 ;  248 "main.cpp" 1
 7155 2ada 7894      		sei
 7156               	 ;  0 "" 2
 7157               	.LM938:
 7158               	/* #NOAPP */
 7159 2adc 0E94 0000 		call _Z6filterv
 7160               	/* epilogue start */
 7161               	.LM939:
 7162 2ae0 FF91      		pop r31
 7163 2ae2 EF91      		pop r30
 7164 2ae4 BF91      		pop r27
 7165 2ae6 AF91      		pop r26
 7166 2ae8 9F91      		pop r25
 7167 2aea 8F91      		pop r24
 7168 2aec 7F91      		pop r23
 7169 2aee 6F91      		pop r22
 7170 2af0 5F91      		pop r21
 7171 2af2 4F91      		pop r20
 7172 2af4 3F91      		pop r19
 7173 2af6 2F91      		pop r18
 7174 2af8 0F90      		pop r0
 7175 2afa 0FBE      		out __SREG__,r0
 7176 2afc 0F90      		pop r0
 7177 2afe 1F90      		pop __zero_reg__
 7178 2b00 1895      		reti
 7179               	.LFE155:
 7181               	.global	main
 7183               	main:
 7184               	.LFB148:
 7185               	.LM940:
 7186 2b02 0F93      		push r16
 7187 2b04 1F93      		push r17
 7188 2b06 DF93      		push r29
 7189 2b08 CF93      		push r28
 7190 2b0a CDB7      		in r28,__SP_L__
 7191 2b0c DEB7      		in r29,__SP_H__
 7192 2b0e 2C97      		sbiw r28,12
 7193 2b10 0FB6      		in __tmp_reg__,__SREG__
 7194 2b12 F894      		cli
 7195 2b14 DEBF      		out __SP_H__,r29
 7196 2b16 0FBE      		out __SREG__,__tmp_reg__
 7197 2b18 CDBF      		out __SP_L__,r28
 7198               	/* prologue: function */
 7199               	/* frame size = 12 */
 7200               	.LBB703:
 7201               	.LM941:
 7202 2b1a 0E94 0000 		call _Z15init_interruptsv
 7203               	.LM942:
 7204 2b1e 80E0      		ldi r24,lo8(0x0)
 7205 2b20 90E0      		ldi r25,hi8(0x0)
 7206 2b22 A0E0      		ldi r26,hlo8(0x0)
 7207 2b24 B0E0      		ldi r27,hhi8(0x0)
 7208 2b26 8093 0000 		sts anglesGyroGlobal,r24
 7209 2b2a 9093 0000 		sts (anglesGyroGlobal)+1,r25
 7210 2b2e A093 0000 		sts (anglesGyroGlobal)+2,r26
 7211 2b32 B093 0000 		sts (anglesGyroGlobal)+3,r27
 7212               	.LM943:
 7213 2b36 8093 0000 		sts anglesGyroGlobal+4,r24
 7214 2b3a 9093 0000 		sts (anglesGyroGlobal+4)+1,r25
 7215 2b3e A093 0000 		sts (anglesGyroGlobal+4)+2,r26
 7216 2b42 B093 0000 		sts (anglesGyroGlobal+4)+3,r27
 7217               	.LM944:
 7218 2b46 8093 0000 		sts anglesGyroGlobal+8,r24
 7219 2b4a 9093 0000 		sts (anglesGyroGlobal+8)+1,r25
 7220 2b4e A093 0000 		sts (anglesGyroGlobal+8)+2,r26
 7221 2b52 B093 0000 		sts (anglesGyroGlobal+8)+3,r27
 7222 2b56 88EE      		ldi r24,lo8(1000)
 7223 2b58 93E0      		ldi r25,hi8(1000)
 7224               	.LVL231:
 7225               	.LBB704:
 7226               	.LBB705:
 7227               	.LBB706:
 7228               	.LBB707:
 7229               	.LBB708:
 7230               	.LM945:
 7231 2b5a 20E9      		ldi r18,lo8(400)
 7232 2b5c 31E0      		ldi r19,hi8(400)
 7233               	.L195:
 7234 2b5e F901      		movw r30,r18
 7235               	.LVL232:
 7236               	/* #APP */
 7237               	 ;  110 "c:/winavr-20100110/lib/gcc/../../avr/include/util/delay_basic.h" 1
 7238 2b60 3197      		1: sbiw r30,1
 7239 2b62 01F4      		brne 1b
 7240               	 ;  0 "" 2
 7241               	/* #NOAPP */
 7242               	.LBE708:
 7243               	.LBE707:
 7244               	.LM946:
 7245 2b64 0197      		sbiw r24,1
 7246               	.LM947:
 7247 2b66 01F4      		brne .L195
 7248               	.LBE706:
 7249               	.LBE705:
 7250               	.LBE704:
 7251               	.LM948:
 7252 2b68 0E94 0000 		call _Z13SetupHardwarev
 7253               	.LVL233:
 7254               	.LM949:
 7255 2b6c 0E94 0000 		call _Z8init_allv
 7256 2b70 88EE      		ldi r24,lo8(1000)
 7257 2b72 93E0      		ldi r25,hi8(1000)
 7258               	.LVL234:
 7259               	.LBB709:
 7260               	.LBB710:
 7261               	.LBB711:
 7262               	.LBB712:
 7263               	.LBB713:
 7264               	.LM950:
 7265 2b74 20E9      		ldi r18,lo8(400)
 7266 2b76 31E0      		ldi r19,hi8(400)
 7267               	.L196:
 7268 2b78 F901      		movw r30,r18
 7269               	.LVL235:
 7270               	/* #APP */
 7271               	 ;  110 "c:/winavr-20100110/lib/gcc/../../avr/include/util/delay_basic.h" 1
 7272 2b7a 3197      		1: sbiw r30,1
 7273 2b7c 01F4      		brne 1b
 7274               	 ;  0 "" 2
 7275               	/* #NOAPP */
 7276               	.LBE713:
 7277               	.LBE712:
 7278               	.LM951:
 7279 2b7e 0197      		sbiw r24,1
 7280               	.LM952:
 7281 2b80 01F4      		brne .L196
 7282               	.LBE711:
 7283               	.LBE710:
 7284               	.LBE709:
 7285               	.LM953:
 7286 2b82 8E01      		movw r16,r28
 7287 2b84 0F5F      		subi r16,lo8(-(1))
 7288 2b86 1F4F      		sbci r17,hi8(-(1))
 7289 2b88 C801      		movw r24,r16
 7290               	.LVL236:
 7291 2b8a 0E94 0000 		call _Z30accelcompass_angle_acquisitionv
 7292               	.LVL237:
 7293 2b8e A0E0      		ldi r26,lo8(initialAngles)
 7294 2b90 B0E0      		ldi r27,hi8(initialAngles)
 7295 2b92 F801      		movw r30,r16
 7296 2b94 8CE0      		ldi r24,lo8(12)
 7297               	.L197:
 7298 2b96 0190      		ld r0,Z+
 7299 2b98 0D92      		st X+,r0
 7300 2b9a 8150      		subi r24,lo8(-(-1))
 7301 2b9c 01F4      		brne .L197
 7302               	.LM954:
 7303 2b9e 8091 0000 		lds r24,initialAngles
 7304 2ba2 9091 0000 		lds r25,(initialAngles)+1
 7305 2ba6 A091 0000 		lds r26,(initialAngles)+2
 7306 2baa B091 0000 		lds r27,(initialAngles)+3
 7307 2bae B058      		subi r27,0x80
 7308 2bb0 8093 0000 		sts initialAngles,r24
 7309 2bb4 9093 0000 		sts (initialAngles)+1,r25
 7310 2bb8 A093 0000 		sts (initialAngles)+2,r26
 7311 2bbc B093 0000 		sts (initialAngles)+3,r27
 7312               	.LM955:
 7313               	/* #APP */
 7314               	 ;  137 "main.cpp" 1
 7315 2bc0 7894      		sei
 7316               	 ;  0 "" 2
 7317               	.LM956:
 7318               	/* #NOAPP */
 7319 2bc2 80E0      		ldi r24,lo8(VirtualSerial_CDC_Interface)
 7320 2bc4 90E0      		ldi r25,hi8(VirtualSerial_CDC_Interface)
 7321 2bc6 60E0      		ldi r22,lo8(_ZL15USBSerialStream)
 7322 2bc8 70E0      		ldi r23,hi8(_ZL15USBSerialStream)
 7323 2bca 0E94 0000 		call CDC_Device_CreateStream
 7324               	.LM957:
 7325               	/* #APP */
 7326               	 ;  143 "main.cpp" 1
 7327 2bce 7894      		sei
 7328               	 ;  0 "" 2
 7329               	/* #NOAPP */
 7330               	.L198:
 7331               	.LM958:
 7332 2bd0 80E0      		ldi r24,lo8(VirtualSerial_CDC_Interface)
 7333 2bd2 90E0      		ldi r25,hi8(VirtualSerial_CDC_Interface)
 7334 2bd4 0E94 0000 		call CDC_Device_USBTask
 7335               	.LM959:
 7336 2bd8 0E94 0000 		call USB_USBTask
 7337 2bdc 00C0      		rjmp .L198
 7338               	.LBE703:
 7339               	.LFE148:
 7341               	.global	X_MAG
 7342               	.global	X_MAG
 7343               		.section .bss
 7346               	X_MAG:
 7347 0000 0000      		.skip 2,0
 7348               	.global	Y_MAG
 7349               	.global	Y_MAG
 7352               	Y_MAG:
 7353 0002 0000      		.skip 2,0
 7354               	.global	Z_MAG
 7355               	.global	Z_MAG
 7358               	Z_MAG:
 7359 0004 0000      		.skip 2,0
 7360               	.global	m_min
 7361               		.data
 7364               	m_min:
 7365 012e 00        		.byte	0
 7366 012f 00        		.byte	0
 7367 0130 F6        		.byte	-10
 7368 0131 C3        		.byte	-61
 7369 0132 00        		.byte	0
 7370 0133 80        		.byte	-128
 7371 0134 FB        		.byte	-5
 7372 0135 C3        		.byte	-61
 7373 0136 00        		.byte	0
 7374 0137 40        		.byte	64
 7375 0138 09        		.byte	9
 7376 0139 C4        		.byte	-60
 7377               	.global	m_max
 7380               	m_max:
 7381 013a 00        		.byte	0
 7382 013b C0        		.byte	-64
 7383 013c 10        		.byte	16
 7384 013d 44        		.byte	68
 7385 013e 00        		.byte	0
 7386 013f 00        		.byte	0
 7387 0140 F7        		.byte	-9
 7388 0141 43        		.byte	67
 7389 0142 00        		.byte	0
 7390 0143 00        		.byte	0
 7391 0144 A1        		.byte	-95
 7392 0145 43        		.byte	67
 7393               	.global	buffer
 7394               	.global	buffer
 7395               		.section .bss
 7398               	buffer:
 7399 0006 0000 0000 		.skip 16,0
 7399      0000 0000 
 7399      0000 0000 
 7399      0000 0000 
 7400               	.global	VirtualSerial_CDC_Interface
 7401               		.data
 7404               	VirtualSerial_CDC_Interface:
 7405 0146 00        		.byte	0
 7406 0147 03        		.byte	3
 7407 0148 1000      		.word	16
 7408 014a 00        		.byte	0
 7409 014b 04        		.byte	4
 7410 014c 1000      		.word	16
 7411 014e 00        		.byte	0
 7412 014f 02        		.byte	2
 7413 0150 0800      		.word	8
 7414 0152 00        		.byte	0
 7415 0153 0000 0000 		.skip 11,0
 7415      0000 0000 
 7415      0000 00
 7416               	.global	anglesGyroGlobal
 7417               	.global	anglesGyroGlobal
 7418               		.section .bss
 7421               	anglesGyroGlobal:
 7422 0016 0000 0000 		.skip 12,0
 7422      0000 0000 
 7422      0000 0000 
 7423               	.global	tcnt1
 7424               		.data
 7427               	tcnt1:
 7428 015e B888      		.word	-30536
 7429               	.global	anglesAccel
 7430               	.global	anglesAccel
 7431               		.section .bss
 7434               	anglesAccel:
 7435 0022 0000 0000 		.skip 12,0
 7435      0000 0000 
 7435      0000 0000 
 7436               	.global	anglesGyro
 7437               	.global	anglesGyro
 7440               	anglesGyro:
 7441 002e 0000 0000 		.skip 12,0
 7441      0000 0000 
 7441      0000 0000 
 7442               	.global	anglesOutput
 7443               	.global	anglesOutput
 7446               	anglesOutput:
 7447 003a 0000 0000 		.skip 12,0
 7447      0000 0000 
 7447      0000 0000 
 7448               	.global	initialAngles
 7449               	.global	initialAngles
 7452               	initialAngles:
 7453 0046 0000 0000 		.skip 12,0
 7453      0000 0000 
 7453      0000 0000 
 7454               		.lcomm _ZL15USBSerialStream,14
 7455               		.data
 7458               	_ZZ22gyro_measurement_noisevE4C.97:
 7459 0160 0000 0000 		.skip 12,0
 7459      0000 0000 
 7459      0000 0000 
 7462               	_ZZ10gyro_angle6vectorE4C.96:
 7463 016c 0000 0000 		.skip 12,0
 7463      0000 0000 
 7463      0000 0000 
 7466               	_ZZ23accel_measurement_noisevE4C.90:
 7467 0178 0000 0000 		.skip 12,0
 7467      0000 0000 
 7467      0000 0000 
 7470               	_ZZ30accelcompass_angle_acquisitionvE4C.88:
 7471 0184 00        		.byte	0
 7472 0185 00        		.byte	0
 7473 0186 00        		.byte	0
 7474 0187 00        		.byte	0
 7475 0188 00        		.byte	0
 7476 0189 00        		.byte	0
 7477 018a 80        		.byte	-128
 7478 018b BF        		.byte	-65
 7479 018c 00        		.byte	0
 7480 018d 00        		.byte	0
 7481 018e 00        		.byte	0
 7482 018f 00        		.byte	0
 7485               	_ZZ11accel_angle6vectorE4C.87:
 7486 0190 0000 0000 		.skip 12,0
 7486      0000 0000 
 7486      0000 0000 
 7489               	_ZZ19compass_calibrationvE4C.78:
 7490 019c 0000 0000 		.skip 12,0
 7490      0000 0000 
 7490      0000 0000 
 7493               	_ZZ19compass_calibrationvE4C.77:
 7494 01a8 0000 0000 		.skip 12,0
 7494      0000 0000 
 7494      0000 0000 
 7919               	.Letext0:
DEFINED SYMBOLS
                            *ABS*:00000000 main.cpp
C:\Users\Jose\AppData\Local\Temp/ccteLMCJ.s:2      *ABS*:0000003f __SREG__
C:\Users\Jose\AppData\Local\Temp/ccteLMCJ.s:3      *ABS*:0000003e __SP_H__
C:\Users\Jose\AppData\Local\Temp/ccteLMCJ.s:4      *ABS*:0000003d __SP_L__
C:\Users\Jose\AppData\Local\Temp/ccteLMCJ.s:5      *ABS*:00000034 __CCP__
C:\Users\Jose\AppData\Local\Temp/ccteLMCJ.s:6      *ABS*:00000000 __tmp_reg__
C:\Users\Jose\AppData\Local\Temp/ccteLMCJ.s:7      *ABS*:00000001 __zero_reg__
C:\Users\Jose\AppData\Local\Temp/ccteLMCJ.s:18     .text:00000000 _Z13i2cSetBitratet
C:\Users\Jose\AppData\Local\Temp/ccteLMCJ.s:70     .text:0000003c _Z7i2cInitv
C:\Users\Jose\AppData\Local\Temp/ccteLMCJ.s:92     .text:00000050 _Z12i2cSendStartv
C:\Users\Jose\AppData\Local\Temp/ccteLMCJ.s:109    .text:0000005a _Z11i2cSendStopv
C:\Users\Jose\AppData\Local\Temp/ccteLMCJ.s:124    .text:00000062 _Z18i2cWaitForCompletev
C:\Users\Jose\AppData\Local\Temp/ccteLMCJ.s:153    .text:0000007c _Z14i2cReceiveByteh
C:\Users\Jose\AppData\Local\Temp/ccteLMCJ.s:182    .text:00000098 _Z18i2cGetReceivedBytev
C:\Users\Jose\AppData\Local\Temp/ccteLMCJ.s:196    .text:0000009e _Z12i2cGetStatusv
C:\Users\Jose\AppData\Local\Temp/ccteLMCJ.s:210    .text:000000a4 _Z8delay_msj
C:\Users\Jose\AppData\Local\Temp/ccteLMCJ.s:262    .text:000000c2 _Z11i2cSendByteh
C:\Users\Jose\AppData\Local\Temp/ccteLMCJ.s:291    .text:000000de _Z9gyro_initv
C:\Users\Jose\AppData\Local\Temp/ccteLMCJ.s:424    .text:00000190 _Z6x_gyrov
C:\Users\Jose\AppData\Local\Temp/ccteLMCJ.s:599    .text:00000268 _Z6y_gyrov
C:\Users\Jose\AppData\Local\Temp/ccteLMCJ.s:774    .text:00000340 _Z6z_gyrov
C:\Users\Jose\AppData\Local\Temp/ccteLMCJ.s:949    .text:00000418 _Z18accelerometer_initv
C:\Users\Jose\AppData\Local\Temp/ccteLMCJ.s:1040   .text:0000048c _Z7x_accelv
C:\Users\Jose\AppData\Local\Temp/ccteLMCJ.s:1250   .text:00000582 _Z7y_accelv
C:\Users\Jose\AppData\Local\Temp/ccteLMCJ.s:1460   .text:00000678 _Z7z_accelv
C:\Users\Jose\AppData\Local\Temp/ccteLMCJ.s:1670   .text:0000076e _Z17magnetometer_initv
C:\Users\Jose\AppData\Local\Temp/ccteLMCJ.s:1793   .text:0000080c _Z19magnetometer_valuesv
C:\Users\Jose\AppData\Local\Temp/ccteLMCJ.s:7346   .bss:00000000 X_MAG
C:\Users\Jose\AppData\Local\Temp/ccteLMCJ.s:7358   .bss:00000004 Z_MAG
C:\Users\Jose\AppData\Local\Temp/ccteLMCJ.s:7352   .bss:00000002 Y_MAG
C:\Users\Jose\AppData\Local\Temp/ccteLMCJ.s:1993   .text:00000902 _Z14compass_configv
C:\Users\Jose\AppData\Local\Temp/ccteLMCJ.s:2009   .text:0000090c _Z17compass_read_dataP6vectorS0_
C:\Users\Jose\AppData\Local\Temp/ccteLMCJ.s:2836   .text:00000d02 _Z19compass_calibrationv
C:\Users\Jose\AppData\Local\Temp/ccteLMCJ.s:7493   .data:000001a8 _ZZ19compass_calibrationvE4C.77
C:\Users\Jose\AppData\Local\Temp/ccteLMCJ.s:7489   .data:0000019c _ZZ19compass_calibrationvE4C.78
C:\Users\Jose\AppData\Local\Temp/ccteLMCJ.s:2932   .text:00000d98 _Z11gyro_configv
C:\Users\Jose\AppData\Local\Temp/ccteLMCJ.s:2946   .text:00000d9e _Z14gyro_read_dataP6vector
C:\Users\Jose\AppData\Local\Temp/ccteLMCJ.s:3515   .text:00001090 _Z12vector_crossPK6vectorS1_PS_
C:\Users\Jose\AppData\Local\Temp/ccteLMCJ.s:3661   .text:0000119e _Z10vector_dotPK6vectorS1_
C:\Users\Jose\AppData\Local\Temp/ccteLMCJ.s:3744   .text:0000122c _Z7accel_gP6vector
C:\Users\Jose\AppData\Local\Temp/ccteLMCJ.s:3821   .text:000012ac _Z8gyro_dpsP6vector
C:\Users\Jose\AppData\Local\Temp/ccteLMCJ.s:3904   .text:00001338 _Z10gyro_angle6vector
C:\Users\Jose\AppData\Local\Temp/ccteLMCJ.s:7462   .data:0000016c _ZZ10gyro_angle6vectorE4C.96
C:\Users\Jose\AppData\Local\Temp/ccteLMCJ.s:4034   .text:0000141c _Z22gyro_angle_acquisitionv
C:\Users\Jose\AppData\Local\Temp/ccteLMCJ.s:4108   .text:00001496 _Z22gyro_measurement_noisev
C:\Users\Jose\AppData\Local\Temp/ccteLMCJ.s:7458   .data:00000160 _ZZ22gyro_measurement_noisevE4C.97
C:\Users\Jose\AppData\Local\Temp/ccteLMCJ.s:4588   .text:00001838 EVENT_USB_Device_Connect
C:\Users\Jose\AppData\Local\Temp/ccteLMCJ.s:4600   .text:0000183a EVENT_USB_Device_Disconnect
C:\Users\Jose\AppData\Local\Temp/ccteLMCJ.s:4612   .text:0000183c _Z8init_allv
C:\Users\Jose\AppData\Local\Temp/ccteLMCJ.s:4640   .text:00001852 _Z15init_interruptsv
C:\Users\Jose\AppData\Local\Temp/ccteLMCJ.s:7427   .data:0000015e tcnt1
C:\Users\Jose\AppData\Local\Temp/ccteLMCJ.s:4705   .text:000018a0 _Z13print_hmc58836__file
C:\Users\Jose\AppData\Local\Temp/ccteLMCJ.s:4852   .text:000019b0 _Z13print_adxl3456__file
C:\Users\Jose\AppData\Local\Temp/ccteLMCJ.s:4989   .text:00001aa0 _Z13print_itg32056__file
C:\Users\Jose\AppData\Local\Temp/ccteLMCJ.s:5147   .text:00001bcc EVENT_USB_Device_ControlRequest
C:\Users\Jose\AppData\Local\Temp/ccteLMCJ.s:7404   .data:00000146 VirtualSerial_CDC_Interface
C:\Users\Jose\AppData\Local\Temp/ccteLMCJ.s:5163   .text:00001bd6 EVENT_USB_Device_ConfigurationChanged
C:\Users\Jose\AppData\Local\Temp/ccteLMCJ.s:5181   .text:00001be0 _Z13SetupHardwarev
C:\Users\Jose\AppData\Local\Temp/ccteLMCJ.s:7398   .bss:00000006 buffer
C:\Users\Jose\AppData\Local\Temp/ccteLMCJ.s:5242   .text:00001c22 _Z16vector_normalizeP6vector
C:\Users\Jose\AppData\Local\Temp/ccteLMCJ.s:5378   .text:00001d0e _Z11accel_angle6vector
C:\Users\Jose\AppData\Local\Temp/ccteLMCJ.s:7485   .data:00000190 _ZZ11accel_angle6vectorE4C.87
C:\Users\Jose\AppData\Local\Temp/ccteLMCJ.s:5710   .text:00001f98 _Z23accel_measurement_noisev
C:\Users\Jose\AppData\Local\Temp/ccteLMCJ.s:7466   .data:00000178 _ZZ23accel_measurement_noisevE4C.90
C:\Users\Jose\AppData\Local\Temp/ccteLMCJ.s:6197   .text:00002348 _Z23accel_angle_acquisitionv
C:\Users\Jose\AppData\Local\Temp/ccteLMCJ.s:6299   .text:000023f6 _Z11get_headingP6vectorS0_S0_
C:\Users\Jose\AppData\Local\Temp/ccteLMCJ.s:7364   .data:0000012e m_min
C:\Users\Jose\AppData\Local\Temp/ccteLMCJ.s:7380   .data:0000013a m_max
C:\Users\Jose\AppData\Local\Temp/ccteLMCJ.s:6684   .text:00002722 _Z30accelcompass_angle_acquisitionv
C:\Users\Jose\AppData\Local\Temp/ccteLMCJ.s:7470   .data:00000184 _ZZ30accelcompass_angle_acquisitionvE4C.88
C:\Users\Jose\AppData\Local\Temp/ccteLMCJ.s:6813   .text:000027e4 _Z6filterv
C:\Users\Jose\AppData\Local\Temp/ccteLMCJ.s:7434   .bss:00000022 anglesAccel
C:\Users\Jose\AppData\Local\Temp/ccteLMCJ.s:7440   .bss:0000002e anglesGyro
C:\Users\Jose\AppData\Local\Temp/ccteLMCJ.s:7446   .bss:0000003a anglesOutput
C:\Users\Jose\AppData\Local\Temp/ccteLMCJ.s:7452   .bss:00000046 initialAngles
                             .bss:00000052 _ZL15USBSerialStream
C:\Users\Jose\AppData\Local\Temp/ccteLMCJ.s:7125   .text:00002aa8 __vector_20
C:\Users\Jose\AppData\Local\Temp/ccteLMCJ.s:7183   .text:00002b02 main
C:\Users\Jose\AppData\Local\Temp/ccteLMCJ.s:7421   .bss:00000016 anglesGyroGlobal

UNDEFINED SYMBOLS
__udivmodsi4
__floatsisf
__gtsf2
__addsf3
__mulsf3
__subsf3
__divsf3
fprintf
CDC_Device_ProcessControlRequest
CDC_Device_ConfigureEndpoints
USB_Init
sqrt
__ltsf2
acos
atan2
round
__lesf2
__gesf2
CDC_Device_CreateStream
CDC_Device_USBTask
USB_USBTask
__do_copy_data
__do_clear_bss
